ARM GAS  C:\Users\SALMAC~1\AppData\Local\Temp\ccwJHm0G.s 			page 1


   1              		.cpu cortex-m4
   2              		.eabi_attribute 27, 1
   3              		.eabi_attribute 28, 1
   4              		.eabi_attribute 20, 1
   5              		.eabi_attribute 21, 1
   6              		.eabi_attribute 23, 3
   7              		.eabi_attribute 24, 1
   8              		.eabi_attribute 25, 1
   9              		.eabi_attribute 26, 1
  10              		.eabi_attribute 30, 2
  11              		.eabi_attribute 34, 1
  12              		.eabi_attribute 18, 4
  13              		.file	"audio_processing.c"
  14              		.text
  15              	.Ltext0:
  16              		.cfi_sections	.debug_frame
  17              		.section	.text.sound_remote,"ax",%progbits
  18              		.align	1
  19              		.p2align 4,,15
  20              		.global	sound_remote
  21              		.syntax unified
  22              		.thumb
  23              		.thumb_func
  24              		.fpu fpv4-sp-d16
  25              		.type	sound_remote, %function
  26              	sound_remote:
  27              	.LFB290:
  28              		.file 1 "audio_processing.c"
  29              		.loc 1 36 0
  30              		.cfi_startproc
  31              		@ args = 0, pretend = 0, frame = 8
  32              		@ frame_needed = 0, uses_anonymous_args = 0
  33              	.LVL0:
  34 0000 10B5     		push	{r4, lr}
  35              		.cfi_def_cfa_offset 8
  36              		.cfi_offset 4, -8
  37              		.cfi_offset 14, -4
  38 0002 214C     		ldr	r4, .L24
  39              		.loc 1 37 0
  40 0004 9FED217A 		vldr.32	s14, .L24+4
  41              		.loc 1 36 0
  42 0008 2368     		ldr	r3, [r4]
  43 000a 82B0     		sub	sp, sp, #8
  44              		.cfi_def_cfa_offset 16
  45 000c 2830     		adds	r0, r0, #40
  46              	.LVL1:
  47              		.loc 1 36 0
  48 000e 0193     		str	r3, [sp, #4]
  49              	.LVL2:
  50              		.loc 1 38 0
  51 0010 4FF0FF32 		mov	r2, #-1
  52              		.loc 1 36 0
  53 0014 0A23     		movs	r3, #10
  54              	.LVL3:
  55              	.L4:
  56              	.LBB2:
  57              		.loc 1 44 0
ARM GAS  C:\Users\SALMAC~1\AppData\Local\Temp\ccwJHm0G.s 			page 2


  58 0016 F0EC017A 		vldmia.32	r0!, {s15}
  59 001a F4EEC77A 		vcmpe.f32	s15, s14
  60 001e F1EE10FA 		vmrs	APSR_nzcv, FPSCR
  61              	.LVL4:
  62              		.loc 1 46 0
  63 0022 C8BF     		it	gt
  64 0024 1AB2     		sxthgt	r2, r3
  65              	.LVL5:
  66 0026 03F10103 		add	r3, r3, #1
  67              	.LVL6:
  68              		.loc 1 45 0
  69 002a C8BF     		it	gt
  70 002c B0EE677A 		vmovgt.f32	s14, s15
  71              	.LVL7:
  72              		.loc 1 42 0
  73 0030 1F2B     		cmp	r3, #31
  74 0032 F0D1     		bne	.L4
  75              	.LBE2:
  76              		.loc 1 51 0
  77 0034 92B2     		uxth	r2, r2
  78 0036 531E     		subs	r3, r2, #1
  79 0038 022B     		cmp	r3, #2
  80 003a 1BD9     		bls	.L21
  81              		.loc 1 56 0
  82 003c A2F11603 		sub	r3, r2, #22
  83 0040 022B     		cmp	r3, #2
  84 0042 08D9     		bls	.L22
  85              		.loc 1 61 0
  86 0044 0F3A     		subs	r2, r2, #15
  87 0046 022A     		cmp	r2, #2
  88 0048 18D9     		bls	.L23
  89              	.LVL8:
  90              	.L1:
  91              		.loc 1 70 0
  92 004a 019A     		ldr	r2, [sp, #4]
  93 004c 2368     		ldr	r3, [r4]
  94 004e 9A42     		cmp	r2, r3
  95 0050 18D1     		bne	.L19
  96 0052 02B0     		add	sp, sp, #8
  97              		.cfi_remember_state
  98              		.cfi_def_cfa_offset 8
  99              		@ sp needed
 100 0054 10BD     		pop	{r4, pc}
 101              	.LVL9:
 102              	.L22:
 103              		.cfi_restore_state
 104              		.loc 1 58 0
 105 0056 0320     		movs	r0, #3
 106 0058 FFF7FEFF 		bl	maze_mapping_uturn_after_selecting_mode
 107              	.LVL10:
 108              	.L6:
 109              		.loc 1 68 0
 110 005c 0028     		cmp	r0, #0
 111 005e F4D0     		beq	.L1
 112              		.loc 1 69 0
 113 0060 019A     		ldr	r2, [sp, #4]
 114 0062 2368     		ldr	r3, [r4]
ARM GAS  C:\Users\SALMAC~1\AppData\Local\Temp\ccwJHm0G.s 			page 3


 115 0064 9A42     		cmp	r2, r3
 116 0066 0DD1     		bne	.L19
 117 0068 B420     		movs	r0, #180
 118              	.LVL11:
 119              		.loc 1 70 0
 120 006a 02B0     		add	sp, sp, #8
 121              		.cfi_remember_state
 122              		.cfi_def_cfa_offset 8
 123              		@ sp needed
 124 006c BDE81040 		pop	{r4, lr}
 125              		.cfi_restore 14
 126              		.cfi_restore 4
 127              		.cfi_def_cfa_offset 0
 128              		.loc 1 69 0
 129 0070 FFF7FEBF 		b	turn
 130              	.LVL12:
 131              	.L21:
 132              		.cfi_restore_state
 133              		.loc 1 53 0
 134 0074 0220     		movs	r0, #2
 135 0076 FFF7FEFF 		bl	maze_mapping_uturn_after_selecting_mode
 136              	.LVL13:
 137 007a EFE7     		b	.L6
 138              	.LVL14:
 139              	.L23:
 140              		.loc 1 63 0
 141 007c 0120     		movs	r0, #1
 142 007e FFF7FEFF 		bl	maze_mapping_uturn_after_selecting_mode
 143              	.LVL15:
 144 0082 EBE7     		b	.L6
 145              	.LVL16:
 146              	.L19:
 147              		.loc 1 70 0
 148 0084 FFF7FEFF 		bl	__stack_chk_fail
 149              	.LVL17:
 150              	.L25:
 151              		.align	2
 152              	.L24:
 153 0088 00000000 		.word	__stack_chk_guard
 154 008c 00401C46 		.word	1176256512
 155              		.cfi_endproc
 156              	.LFE290:
 157              		.size	sound_remote, .-sound_remote
 158              		.section	.text.processAudioData,"ax",%progbits
 159              		.align	1
 160              		.p2align 4,,15
 161              		.global	processAudioData
 162              		.syntax unified
 163              		.thumb
 164              		.thumb_func
 165              		.fpu fpv4-sp-d16
 166              		.type	processAudioData, %function
 167              	processAudioData:
 168              	.LFB291:
 169              		.loc 1 73 0
 170              		.cfi_startproc
 171              		@ args = 0, pretend = 0, frame = 8
ARM GAS  C:\Users\SALMAC~1\AppData\Local\Temp\ccwJHm0G.s 			page 4


 172              		@ frame_needed = 0, uses_anonymous_args = 0
 173              	.LVL18:
 174 0000 F0B5     		push	{r4, r5, r6, r7, lr}
 175              		.cfi_def_cfa_offset 20
 176              		.cfi_offset 4, -20
 177              		.cfi_offset 5, -16
 178              		.cfi_offset 6, -12
 179              		.cfi_offset 7, -8
 180              		.cfi_offset 14, -4
 181 0002 364D     		ldr	r5, .L41
 182 0004 DFF8E0C0 		ldr	ip, .L41+12
 183 0008 2B68     		ldr	r3, [r5]
 184 000a 83B0     		sub	sp, sp, #12
 185              		.cfi_def_cfa_offset 32
 186              		.loc 1 73 0
 187 000c 0193     		str	r3, [sp, #4]
 188              	.LVL19:
 189 000e BCF80030 		ldrh	r3, [ip]
 190              	.LBB3:
 191              		.loc 1 77 0
 192 0012 0029     		cmp	r1, #0
 193 0014 59D0     		beq	.L27
 194              		.loc 1 79 0
 195 0016 B0F90620 		ldrsh	r2, [r0, #6]
 196 001a 314C     		ldr	r4, .L41+4
 197 001c 07EE902A 		vmov	s15, r2	@ int
 198              		.loc 1 80 0
 199 0020 5A1C     		adds	r2, r3, #1
 200              		.loc 1 79 0
 201 0022 04EB8306 		add	r6, r4, r3, lsl #2
 202              		.loc 1 82 0
 203 0026 92B2     		uxth	r2, r2
 204              		.loc 1 83 0
 205 0028 0233     		adds	r3, r3, #2
 206 002a 9BB2     		uxth	r3, r3
 207              		.loc 1 79 0
 208 002c F8EEE77A 		vcvt.f32.s32	s15, s15
 209              		.loc 1 82 0
 210 0030 04EB8202 		add	r2, r4, r2, lsl #2
 211 0034 4FF0000E 		mov	lr, #0
 212              		.loc 1 86 0
 213 0038 B3F5006F 		cmp	r3, #2048
 214              		.loc 1 79 0
 215 003c C6ED007A 		vstr.32	s15, [r6]
 216              		.loc 1 83 0
 217 0040 ACF80030 		strh	r3, [ip]	@ movhi
 218              		.loc 1 82 0
 219 0044 C2F800E0 		str	lr, [r2]	@ float
 220              		.loc 1 86 0
 221 0048 2AD2     		bcs	.L28
 222 004a 0139     		subs	r1, r1, #1
 223              	.LVL20:
 224 004c C1F38D01 		ubfx	r1, r1, #2, #14
 225 0050 00EBC101 		add	r1, r0, r1, lsl #3
 226 0054 0026     		movs	r6, #0
 227 0056 18E0     		b	.L29
 228              	.LVL21:
ARM GAS  C:\Users\SALMAC~1\AppData\Local\Temp\ccwJHm0G.s 			page 5


 229              	.L31:
 230              		.loc 1 79 0
 231 0058 B0F90E20 		ldrsh	r2, [r0, #14]
 232 005c 07EE902A 		vmov	s15, r2	@ int
 233              		.loc 1 82 0
 234 0060 5A1C     		adds	r2, r3, #1
 235 0062 92B2     		uxth	r2, r2
 236              		.loc 1 83 0
 237 0064 9F1C     		adds	r7, r3, #2
 238              		.loc 1 79 0
 239 0066 04EB8306 		add	r6, r4, r3, lsl #2
 240 006a F8EEE77A 		vcvt.f32.s32	s15, s15
 241              		.loc 1 82 0
 242 006e 04EB8202 		add	r2, r4, r2, lsl #2
 243              		.loc 1 83 0
 244 0072 BBB2     		uxth	r3, r7
 245              		.loc 1 86 0
 246 0074 B3F5006F 		cmp	r3, #2048
 247              		.loc 1 79 0
 248 0078 C6ED007A 		vstr.32	s15, [r6]
 249 007c 00F10800 		add	r0, r0, #8
 250 0080 4FF00106 		mov	r6, #1
 251              		.loc 1 82 0
 252 0084 C2F800E0 		str	lr, [r2]	@ float
 253              		.loc 1 86 0
 254 0088 08D2     		bcs	.L30
 255              	.L29:
 256              		.loc 1 77 0 discriminator 2
 257 008a 8842     		cmp	r0, r1
 258 008c E4D1     		bne	.L31
 259 008e 16BB     		cbnz	r6, .L40
 260              	.L26:
 261              	.LBE3:
 262              		.loc 1 98 0
 263 0090 019A     		ldr	r2, [sp, #4]
 264 0092 2B68     		ldr	r3, [r5]
 265 0094 9A42     		cmp	r2, r3
 266 0096 1CD1     		bne	.L39
 267 0098 03B0     		add	sp, sp, #12
 268              		.cfi_remember_state
 269              		.cfi_def_cfa_offset 20
 270              		@ sp needed
 271 009a F0BD     		pop	{r4, r5, r6, r7, pc}
 272              	.L30:
 273              		.cfi_restore_state
 274 009c ACF80030 		strh	r3, [ip]	@ movhi
 275              	.L28:
 276              		.loc 1 94 0
 277 00a0 0F49     		ldr	r1, .L41+4
 278 00a2 4FF48060 		mov	r0, #1024
 279 00a6 FFF7FEFF 		bl	doFFT_optimized
 280              	.LVL22:
 281              		.loc 1 95 0
 282 00aa 4FF48062 		mov	r2, #1024
 283 00ae 0D49     		ldr	r1, .L41+8
 284 00b0 0B48     		ldr	r0, .L41+4
 285 00b2 FFF7FEFF 		bl	arm_cmplx_mag_f32
ARM GAS  C:\Users\SALMAC~1\AppData\Local\Temp\ccwJHm0G.s 			page 6


 286              	.LVL23:
 287              		.loc 1 96 0
 288 00b6 019A     		ldr	r2, [sp, #4]
 289 00b8 2B68     		ldr	r3, [r5]
 290 00ba 9A42     		cmp	r2, r3
 291 00bc 09D1     		bne	.L39
 292 00be 0948     		ldr	r0, .L41+8
 293              		.loc 1 98 0
 294 00c0 03B0     		add	sp, sp, #12
 295              		.cfi_remember_state
 296              		.cfi_def_cfa_offset 20
 297              		@ sp needed
 298 00c2 BDE8F040 		pop	{r4, r5, r6, r7, lr}
 299              		.cfi_restore 14
 300              		.cfi_restore 7
 301              		.cfi_restore 6
 302              		.cfi_restore 5
 303              		.cfi_restore 4
 304              		.cfi_def_cfa_offset 0
 305              		.loc 1 96 0
 306 00c6 FFF7FEBF 		b	sound_remote
 307              	.LVL24:
 308              	.L27:
 309              		.cfi_restore_state
 310              		.loc 1 92 0
 311 00ca B3F5006F 		cmp	r3, #2048
 312 00ce DFD3     		bcc	.L26
 313 00d0 E6E7     		b	.L28
 314              	.LVL25:
 315              	.L39:
 316              		.loc 1 98 0
 317 00d2 FFF7FEFF 		bl	__stack_chk_fail
 318              	.LVL26:
 319              	.L40:
 320 00d6 ACF80030 		strh	r3, [ip]	@ movhi
 321 00da D9E7     		b	.L26
 322              	.L42:
 323              		.align	2
 324              	.L41:
 325 00dc 00000000 		.word	__stack_chk_guard
 326 00e0 00000000 		.word	micFront_cmplx_input
 327 00e4 00000000 		.word	micFront_output
 328 00e8 00000000 		.word	.LANCHOR0
 329              		.cfi_endproc
 330              	.LFE291:
 331              		.size	processAudioData, .-processAudioData
 332              		.section	.bss.micFront_cmplx_input,"aw",%nobits
 333              		.align	2
 334              		.type	micFront_cmplx_input, %object
 335              		.size	micFront_cmplx_input, 8192
 336              	micFront_cmplx_input:
 337 0000 00000000 		.space	8192
 337      00000000 
 337      00000000 
 337      00000000 
 337      00000000 
 338              		.section	.bss.micFront_output,"aw",%nobits
ARM GAS  C:\Users\SALMAC~1\AppData\Local\Temp\ccwJHm0G.s 			page 7


 339              		.align	2
 340              		.type	micFront_output, %object
 341              		.size	micFront_output, 4096
 342              	micFront_output:
 343 0000 00000000 		.space	4096
 343      00000000 
 343      00000000 
 343      00000000 
 343      00000000 
 344              		.section	.bss.nb_samples.14170,"aw",%nobits
 345              		.align	1
 346              		.set	.LANCHOR0,. + 0
 347              		.type	nb_samples.14170, %object
 348              		.size	nb_samples.14170, 2
 349              	nb_samples.14170:
 350 0000 0000     		.space	2
 351              		.text
 352              	.Letext0:
 353              		.file 2 "c:\\users\\salma chatagny\\documents\\epfl\\ba6\\microinformatique\\eclipse_e-puck2\\tool
 354              		.file 3 "c:\\users\\salma chatagny\\documents\\epfl\\ba6\\microinformatique\\eclipse_e-puck2\\tool
 355              		.file 4 "c:\\users\\salma chatagny\\documents\\epfl\\ba6\\microinformatique\\eclipse_e-puck2\\tool
 356              		.file 5 "../../lib/e-puck2_main-processor/ChibiOS//os/rt/ports/ARMCMx/compilers/GCC/chtypes.h"
 357              		.file 6 "../../lib/e-puck2_main-processor/ChibiOS//os/rt/include/chsystypes.h"
 358              		.file 7 "../../lib/e-puck2_main-processor/ChibiOS//os/rt/include/chschd.h"
 359              		.file 8 "../../lib/e-puck2_main-processor/ChibiOS//os/ext/CMSIS/include/core_cm4.h"
 360              		.file 9 "../../lib/e-puck2_main-processor/ChibiOS//os/ext/CMSIS/ST/system_stm32f4xx.h"
 361              		.file 10 "../../lib/e-puck2_main-processor/ChibiOS//os/ext/CMSIS/ST/stm32f407xx.h"
 362              		.file 11 "../../lib/e-puck2_main-processor/ChibiOS//os/rt/ports/ARMCMx/chcore.h"
 363              		.file 12 "../../lib/e-puck2_main-processor/ChibiOS//os/rt/ports/ARMCMx/chcore_v7m.h"
 364              		.file 13 "../../lib/e-puck2_main-processor/ChibiOS//os/rt/include/chdebug.h"
 365              		.file 14 "../../lib/e-puck2_main-processor/ChibiOS//os/rt/include/chtm.h"
 366              		.file 15 "../../lib/e-puck2_main-processor/ChibiOS//os/rt/include/chstats.h"
 367              		.file 16 "../../lib/e-puck2_main-processor/ChibiOS//os/rt/include/chsem.h"
 368              		.file 17 "../../lib/e-puck2_main-processor/ChibiOS//os/rt/include/chmtx.h"
 369              		.file 18 "../../lib/e-puck2_main-processor/ChibiOS//os/rt/include/chregistry.h"
 370              		.file 19 "../../lib/e-puck2_main-processor/ChibiOS//os/rt/include/chevents.h"
 371              		.file 20 "../../lib/e-puck2_main-processor/ChibiOS//os/rt/include/chqueues.h"
 372              		.file 21 "../../lib/e-puck2_main-processor/ChibiOS//os/hal/ports/STM32/STM32F4xx/stm32_dma.h"
 373              		.file 22 "../../lib/e-puck2_main-processor/ChibiOS//os/hal/include/hal_ioblock.h"
 374              		.file 23 "../../lib/e-puck2_main-processor/ChibiOS//os/hal/ports/STM32/LLD/GPIOv2/pal_lld.h"
 375              		.file 24 "../../lib/e-puck2_main-processor/ChibiOS//os/hal/include/adc.h"
 376              		.file 25 "../../lib/e-puck2_main-processor/ChibiOS//os/hal/ports/STM32/STM32F4xx/adc_lld.h"
 377              		.file 26 "../../lib/e-puck2_main-processor/ChibiOS//os/hal/include/can.h"
 378              		.file 27 "../../lib/e-puck2_main-processor/ChibiOS//os/hal/ports/STM32/LLD/can_lld.h"
 379              		.file 28 "../../lib/e-puck2_main-processor/ChibiOS//os/hal/include/dac.h"
 380              		.file 29 "../../lib/e-puck2_main-processor/ChibiOS//os/hal/ports/STM32/LLD/DACv1/dac_lld.h"
 381              		.file 30 "../../lib/e-puck2_main-processor/ChibiOS//os/hal/include/ext.h"
 382              		.file 31 "../../lib/e-puck2_main-processor/ChibiOS//os/hal/ports/STM32/LLD/ext_lld.h"
 383              		.file 32 "../../lib/e-puck2_main-processor/ChibiOS//os/hal/include/gpt.h"
 384              		.file 33 "../../lib/e-puck2_main-processor/ChibiOS//os/hal/ports/STM32/LLD/TIMv1/gpt_lld.h"
 385              		.file 34 "../../lib/e-puck2_main-processor/ChibiOS//os/hal/ports/STM32/LLD/TIMv1/stm32_tim.h"
 386              		.file 35 "../../lib/e-puck2_main-processor/ChibiOS//os/hal/include/i2c.h"
 387              		.file 36 "../../lib/e-puck2_main-processor/ChibiOS//os/hal/ports/STM32/LLD/I2Cv1/i2c_lld.h"
 388              		.file 37 "../../lib/e-puck2_main-processor/ChibiOS//os/hal/include/i2s.h"
 389              		.file 38 "../../lib/e-puck2_main-processor/ChibiOS//os/hal/ports/STM32/LLD/SPIv1/i2s_lld.h"
 390              		.file 39 "../../lib/e-puck2_main-processor/ChibiOS//os/hal/include/pwm.h"
 391              		.file 40 "../../lib/e-puck2_main-processor/ChibiOS//os/hal/ports/STM32/LLD/TIMv1/pwm_lld.h"
ARM GAS  C:\Users\SALMAC~1\AppData\Local\Temp\ccwJHm0G.s 			page 8


 392              		.file 41 "../../lib/e-puck2_main-processor/ChibiOS//os/hal/include/serial.h"
 393              		.file 42 "../../lib/e-puck2_main-processor/ChibiOS//os/hal/ports/STM32/LLD/USARTv1/serial_lld.h"
 394              		.file 43 "../../lib/e-puck2_main-processor/ChibiOS//os/hal/include/sdc.h"
 395              		.file 44 "../../lib/e-puck2_main-processor/ChibiOS//os/hal/ports/STM32/LLD/sdc_lld.h"
 396              		.file 45 "../../lib/e-puck2_main-processor/ChibiOS//os/hal/include/spi.h"
 397              		.file 46 "../../lib/e-puck2_main-processor/ChibiOS//os/hal/ports/STM32/LLD/SPIv1/spi_lld.h"
 398              		.file 47 "../../lib/e-puck2_main-processor/ChibiOS//os/hal/include/usb.h"
 399              		.file 48 "../../lib/e-puck2_main-processor/ChibiOS//os/hal/ports/STM32/LLD/OTGv1/usb_lld.h"
 400              		.file 49 "../../lib/e-puck2_main-processor/ChibiOS//os/hal/ports/STM32/LLD/OTGv1/stm32_otg.h"
 401              		.file 50 "../../lib/e-puck2_main-processor/ChibiOS//os/hal/include/serial_usb.h"
 402              		.file 51 "../../lib/e-puck2_main-processor/ChibiOS_ext/os/hal/include/../ports/STM32/STM32F4xx/dcm
 403              		.file 52 "c:\\users\\salma chatagny\\documents\\epfl\\ba6\\microinformatique\\eclipse_e-puck2\\too
 404              		.file 53 "c:\\users\\salma chatagny\\documents\\epfl\\ba6\\microinformatique\\eclipse_e-puck2\\too
 405              		.file 54 "c:\\users\\salma chatagny\\documents\\epfl\\ba6\\microinformatique\\eclipse_e-puck2\\too
 406              		.file 55 "../../lib/e-puck2_main-processor/src/msgbus/messagebus.h"
 407              		.file 56 "c:\\users\\salma chatagny\\documents\\epfl\\ba6\\microinformatique\\eclipse_e-puck2\\too
 408              		.file 57 "c:\\users\\salma chatagny\\documents\\epfl\\ba6\\microinformatique\\eclipse_e-puck2\\too
 409              		.file 58 "../../lib/e-puck2_main-processor/src/parameter/parameter.h"
 410              		.file 59 "./main.h"
 411              		.file 60 "../../lib/e-puck2_main-processor/src/usbcfg.h"
 412              		.file 61 "./constantes.h"
 413              		.file 62 "c:\\users\\salma chatagny\\documents\\epfl\\ba6\\microinformatique\\eclipse_e-puck2\\too
 414              		.file 63 "./fft.h"
 415              		.file 64 "../../lib/e-puck2_main-processor/ChibiOS//os/ext/CMSIS/include/arm_math.h"
 416              		.file 65 "./maze_mapping.h"
 417              		.file 66 "./Mouvements.h"