ARM GAS  C:\Users\SALMAC~1\AppData\Local\Temp\ccZj0cbJ.s 			page 1


   1              		.cpu cortex-m4
   2              		.eabi_attribute 27, 1
   3              		.eabi_attribute 28, 1
   4              		.eabi_attribute 20, 1
   5              		.eabi_attribute 21, 1
   6              		.eabi_attribute 23, 3
   7              		.eabi_attribute 24, 1
   8              		.eabi_attribute 25, 1
   9              		.eabi_attribute 26, 1
  10              		.eabi_attribute 30, 2
  11              		.eabi_attribute 34, 1
  12              		.eabi_attribute 18, 4
  13              		.file	"main.c"
  14              		.text
  15              	.Ltext0:
  16              		.cfi_sections	.debug_frame
  17              		.section	.text.startup.main,"ax",%progbits
  18              		.align	1
  19              		.p2align 4,,15
  20              		.global	main
  21              		.syntax unified
  22              		.thumb
  23              		.thumb_func
  24              		.fpu fpv4-sp-d16
  25              		.type	main, %function
  26              	main:
  27              	.LFB261:
  28              		.file 1 "main.c"
  29              		.loc 1 35 0
  30              		.cfi_startproc
  31              		@ Volatile: function does not return.
  32              		@ args = 0, pretend = 0, frame = 8
  33              		@ frame_needed = 0, uses_anonymous_args = 0
  34 0000 00B5     		push	{lr}
  35              		.cfi_def_cfa_offset 4
  36              		.cfi_offset 14, -4
  37 0002 114B     		ldr	r3, .L6
  38 0004 83B0     		sub	sp, sp, #12
  39              		.cfi_def_cfa_offset 16
  40              		.loc 1 35 0
  41 0006 1B68     		ldr	r3, [r3]
  42 0008 0193     		str	r3, [sp, #4]
  43              		.loc 1 37 0
  44 000a FFF7FEFF 		bl	halInit
  45              	.LVL0:
  46              		.loc 1 38 0
  47 000e FFF7FEFF 		bl	chSysInit
  48              	.LVL1:
  49              		.loc 1 39 0
  50 0012 FFF7FEFF 		bl	mpu_init
  51              	.LVL2:
  52              		.loc 1 42 0
  53 0016 0D4A     		ldr	r2, .L6+4
  54 0018 0D49     		ldr	r1, .L6+8
  55 001a 0E48     		ldr	r0, .L6+12
  56 001c FFF7FEFF 		bl	messagebus_init
  57              	.LVL3:
ARM GAS  C:\Users\SALMAC~1\AppData\Local\Temp\ccZj0cbJ.s 			page 2


  58              	.LBB4:
  59              	.LBB5:
  60              		.loc 1 31 0
  61 0020 0D48     		ldr	r0, .L6+16
  62 0022 0E49     		ldr	r1, .L6+20
  63 0024 FFF7FEFF 		bl	sdStart
  64              	.LVL4:
  65              	.LBE5:
  66              	.LBE4:
  67              		.loc 1 48 0
  68 0028 FFF7FEFF 		bl	proximity_start
  69              	.LVL5:
  70              		.loc 1 49 0
  71 002c FFF7FEFF 		bl	calibrate_ir
  72              	.LVL6:
  73              		.loc 1 52 0
  74 0030 FFF7FEFF 		bl	motors_init
  75              	.LVL7:
  76              		.loc 1 56 0
  77 0034 FFF7FEFF 		bl	process_sensors_start
  78              	.LVL8:
  79              		.loc 1 57 0
  80 0038 0120     		movs	r0, #1
  81 003a FFF7FEFF 		bl	maze_mapping_select_mode
  82              	.LVL9:
  83              	.L2:
  84              		.loc 1 63 0 discriminator 1
  85 003e 4FF47A70 		mov	r0, #1000
  86 0042 FFF7FEFF 		bl	chThdSleep
  87              	.LVL10:
  88 0046 FAE7     		b	.L2
  89              	.L7:
  90              		.align	2
  91              	.L6:
  92 0048 00000000 		.word	__stack_chk_guard
  93 004c 00000000 		.word	.LANCHOR0
  94 0050 00000000 		.word	.LANCHOR1
  95 0054 00000000 		.word	.LANCHOR2
  96 0058 00000000 		.word	SD3
  97 005c 00000000 		.word	.LANCHOR3
  98              		.cfi_endproc
  99              	.LFE261:
 100              		.size	main, .-main
 101              		.section	.text.__stack_chk_fail,"ax",%progbits
 102              		.align	1
 103              		.p2align 4,,15
 104              		.global	__stack_chk_fail
 105              		.syntax unified
 106              		.thumb
 107              		.thumb_func
 108              		.fpu fpv4-sp-d16
 109              		.type	__stack_chk_fail, %function
 110              	__stack_chk_fail:
 111              	.LFB262:
 112              		.loc 1 71 0
 113              		.cfi_startproc
 114              		@ args = 0, pretend = 0, frame = 8
ARM GAS  C:\Users\SALMAC~1\AppData\Local\Temp\ccZj0cbJ.s 			page 3


 115              		@ frame_needed = 0, uses_anonymous_args = 0
 116 0000 00B5     		push	{lr}
 117              		.cfi_def_cfa_offset 4
 118              		.cfi_offset 14, -4
 119 0002 084B     		ldr	r3, .L13
 120 0004 83B0     		sub	sp, sp, #12
 121              		.cfi_def_cfa_offset 16
 122              		.loc 1 71 0
 123 0006 1A68     		ldr	r2, [r3]
 124 0008 0192     		str	r2, [sp, #4]
 125              		.loc 1 72 0
 126 000a 019A     		ldr	r2, [sp, #4]
 127 000c 1B68     		ldr	r3, [r3]
 128 000e 9A42     		cmp	r2, r3
 129 0010 05D1     		bne	.L12
 130 0012 0548     		ldr	r0, .L13+4
 131              		.loc 1 73 0
 132 0014 03B0     		add	sp, sp, #12
 133              		.cfi_remember_state
 134              		.cfi_def_cfa_offset 4
 135              		@ sp needed
 136 0016 5DF804EB 		ldr	lr, [sp], #4
 137              		.cfi_restore 14
 138              		.cfi_def_cfa_offset 0
 139              		.loc 1 72 0
 140 001a FFF7FEBF 		b	chSysHalt
 141              	.LVL11:
 142              	.L12:
 143              		.cfi_restore_state
 144 001e FFF7FEFF 		bl	__stack_chk_fail
 145              	.LVL12:
 146              	.L14:
 147 0022 00BF     		.align	2
 148              	.L13:
 149 0024 00000000 		.word	__stack_chk_guard
 150 0028 00000000 		.word	.LC0
 151              		.cfi_endproc
 152              	.LFE262:
 153              		.size	__stack_chk_fail, .-__stack_chk_fail
 154              		.global	__stack_chk_guard
 155              		.global	bus_condvar
 156              		.global	bus_lock
 157              		.global	bus
 158              		.section	.bss.bus,"aw",%nobits
 159              		.align	2
 160              		.set	.LANCHOR2,. + 0
 161              		.type	bus, %object
 162              		.size	bus, 12
 163              	bus:
 164 0000 00000000 		.space	12
 164      00000000 
 164      00000000 
 165              		.section	.data.__stack_chk_guard,"aw",%progbits
 166              		.align	2
 167              		.type	__stack_chk_guard, %object
 168              		.size	__stack_chk_guard, 4
 169              	__stack_chk_guard:
ARM GAS  C:\Users\SALMAC~1\AppData\Local\Temp\ccZj0cbJ.s 			page 4


 170 0000 96E3DEE2 		.word	-488709226
 171              		.section	.data.bus_condvar,"aw",%progbits
 172              		.align	2
 173              		.set	.LANCHOR0,. + 0
 174              		.type	bus_condvar, %object
 175              		.size	bus_condvar, 8
 176              	bus_condvar:
 177 0000 00000000 		.word	bus_condvar
 178 0004 00000000 		.word	bus_condvar
 179              		.section	.data.bus_lock,"aw",%progbits
 180              		.align	2
 181              		.set	.LANCHOR1,. + 0
 182              		.type	bus_lock, %object
 183              		.size	bus_lock, 20
 184              	bus_lock:
 185 0000 00000000 		.word	bus_lock
 186 0004 00000000 		.word	bus_lock
 187 0008 00000000 		.word	0
 188 000c 00000000 		.word	0
 189 0010 00000000 		.word	0
 190              		.section	.data.ser_cfg.12816,"aw",%progbits
 191              		.align	2
 192              		.set	.LANCHOR3,. + 0
 193              		.type	ser_cfg.12816, %object
 194              		.size	ser_cfg.12816, 12
 195              	ser_cfg.12816:
 196 0000 00C20100 		.word	115200
 197 0004 0000     		.short	0
 198 0006 0000     		.short	0
 199 0008 0000     		.short	0
 200 000a 0000     		.space	2
 201              		.section	.rodata.__stack_chk_fail.str1.4,"aMS",%progbits,1
 202              		.align	2
 203              	.LC0:
 204 0000 53746163 		.ascii	"Stack smashing detected\000"
 204      6B20736D 
 204      61736869 
 204      6E672064 
 204      65746563 
 205              		.text
 206              	.Letext0:
 207              		.file 2 "c:\\users\\salma chatagny\\documents\\epfl\\ba6\\microinformatique\\eclipse_e-puck2\\tool
 208              		.file 3 "c:\\users\\salma chatagny\\documents\\epfl\\ba6\\microinformatique\\eclipse_e-puck2\\tool
 209              		.file 4 "c:\\users\\salma chatagny\\documents\\epfl\\ba6\\microinformatique\\eclipse_e-puck2\\tool
 210              		.file 5 "c:\\users\\salma chatagny\\documents\\epfl\\ba6\\microinformatique\\eclipse_e-puck2\\tool
 211              		.file 6 "c:\\users\\salma chatagny\\documents\\epfl\\ba6\\microinformatique\\eclipse_e-puck2\\tool
 212              		.file 7 "c:\\users\\salma chatagny\\documents\\epfl\\ba6\\microinformatique\\eclipse_e-puck2\\tool
 213              		.file 8 "c:\\users\\salma chatagny\\documents\\epfl\\ba6\\microinformatique\\eclipse_e-puck2\\tool
 214              		.file 9 "c:\\users\\salma chatagny\\documents\\epfl\\ba6\\microinformatique\\eclipse_e-puck2\\tool
 215              		.file 10 "../../lib/e-puck2_main-processor/ChibiOS//os/rt/ports/ARMCMx/compilers/GCC/chtypes.h"
 216              		.file 11 "../../lib/e-puck2_main-processor/ChibiOS//os/rt/include/chsystypes.h"
 217              		.file 12 "../../lib/e-puck2_main-processor/ChibiOS//os/rt/include/chschd.h"
 218              		.file 13 "../../lib/e-puck2_main-processor/ChibiOS//os/ext/CMSIS/include/core_cm4.h"
 219              		.file 14 "../../lib/e-puck2_main-processor/ChibiOS//os/ext/CMSIS/ST/system_stm32f4xx.h"
 220              		.file 15 "../../lib/e-puck2_main-processor/ChibiOS//os/ext/CMSIS/ST/stm32f407xx.h"
 221              		.file 16 "../../lib/e-puck2_main-processor/ChibiOS//os/rt/ports/ARMCMx/chcore.h"
 222              		.file 17 "../../lib/e-puck2_main-processor/ChibiOS//os/rt/ports/ARMCMx/chcore_v7m.h"
ARM GAS  C:\Users\SALMAC~1\AppData\Local\Temp\ccZj0cbJ.s 			page 5


 223              		.file 18 "../../lib/e-puck2_main-processor/ChibiOS//os/rt/include/chdebug.h"
 224              		.file 19 "../../lib/e-puck2_main-processor/ChibiOS//os/rt/include/chtm.h"
 225              		.file 20 "../../lib/e-puck2_main-processor/ChibiOS//os/rt/include/chstats.h"
 226              		.file 21 "../../lib/e-puck2_main-processor/ChibiOS//os/rt/include/chsem.h"
 227              		.file 22 "../../lib/e-puck2_main-processor/ChibiOS//os/rt/include/chmtx.h"
 228              		.file 23 "../../lib/e-puck2_main-processor/ChibiOS//os/rt/include/chregistry.h"
 229              		.file 24 "../../lib/e-puck2_main-processor/ChibiOS//os/rt/include/chcond.h"
 230              		.file 25 "../../lib/e-puck2_main-processor/ChibiOS//os/rt/include/chevents.h"
 231              		.file 26 "../../lib/e-puck2_main-processor/ChibiOS//os/rt/include/chqueues.h"
 232              		.file 27 "../../lib/e-puck2_main-processor/ChibiOS//os/hal/ports/STM32/STM32F4xx/stm32_dma.h"
 233              		.file 28 "../../lib/e-puck2_main-processor/ChibiOS//os/hal/include/hal_ioblock.h"
 234              		.file 29 "../../lib/e-puck2_main-processor/ChibiOS//os/hal/ports/STM32/LLD/GPIOv2/pal_lld.h"
 235              		.file 30 "../../lib/e-puck2_main-processor/ChibiOS//os/hal/include/adc.h"
 236              		.file 31 "../../lib/e-puck2_main-processor/ChibiOS//os/hal/ports/STM32/STM32F4xx/adc_lld.h"
 237              		.file 32 "../../lib/e-puck2_main-processor/ChibiOS//os/hal/include/can.h"
 238              		.file 33 "../../lib/e-puck2_main-processor/ChibiOS//os/hal/ports/STM32/LLD/can_lld.h"
 239              		.file 34 "../../lib/e-puck2_main-processor/ChibiOS//os/hal/include/dac.h"
 240              		.file 35 "../../lib/e-puck2_main-processor/ChibiOS//os/hal/ports/STM32/LLD/DACv1/dac_lld.h"
 241              		.file 36 "../../lib/e-puck2_main-processor/ChibiOS//os/hal/include/ext.h"
 242              		.file 37 "../../lib/e-puck2_main-processor/ChibiOS//os/hal/ports/STM32/LLD/ext_lld.h"
 243              		.file 38 "../../lib/e-puck2_main-processor/ChibiOS//os/hal/include/gpt.h"
 244              		.file 39 "../../lib/e-puck2_main-processor/ChibiOS//os/hal/ports/STM32/LLD/TIMv1/gpt_lld.h"
 245              		.file 40 "../../lib/e-puck2_main-processor/ChibiOS//os/hal/ports/STM32/LLD/TIMv1/stm32_tim.h"
 246              		.file 41 "../../lib/e-puck2_main-processor/ChibiOS//os/hal/include/i2c.h"
 247              		.file 42 "../../lib/e-puck2_main-processor/ChibiOS//os/hal/ports/STM32/LLD/I2Cv1/i2c_lld.h"
 248              		.file 43 "../../lib/e-puck2_main-processor/ChibiOS//os/hal/include/i2s.h"
 249              		.file 44 "../../lib/e-puck2_main-processor/ChibiOS//os/hal/ports/STM32/LLD/SPIv1/i2s_lld.h"
 250              		.file 45 "../../lib/e-puck2_main-processor/ChibiOS//os/hal/include/pwm.h"
 251              		.file 46 "../../lib/e-puck2_main-processor/ChibiOS//os/hal/ports/STM32/LLD/TIMv1/pwm_lld.h"
 252              		.file 47 "../../lib/e-puck2_main-processor/ChibiOS//os/hal/include/serial.h"
 253              		.file 48 "../../lib/e-puck2_main-processor/ChibiOS//os/hal/ports/STM32/LLD/USARTv1/serial_lld.h"
 254              		.file 49 "../../lib/e-puck2_main-processor/ChibiOS//os/hal/include/sdc.h"
 255              		.file 50 "../../lib/e-puck2_main-processor/ChibiOS//os/hal/ports/STM32/LLD/sdc_lld.h"
 256              		.file 51 "../../lib/e-puck2_main-processor/ChibiOS//os/hal/include/spi.h"
 257              		.file 52 "../../lib/e-puck2_main-processor/ChibiOS//os/hal/ports/STM32/LLD/SPIv1/spi_lld.h"
 258              		.file 53 "../../lib/e-puck2_main-processor/ChibiOS//os/hal/include/usb.h"
 259              		.file 54 "../../lib/e-puck2_main-processor/ChibiOS//os/hal/ports/STM32/LLD/OTGv1/usb_lld.h"
 260              		.file 55 "../../lib/e-puck2_main-processor/ChibiOS//os/hal/ports/STM32/LLD/OTGv1/stm32_otg.h"
 261              		.file 56 "../../lib/e-puck2_main-processor/ChibiOS_ext/os/hal/include/../ports/STM32/STM32F4xx/dcm
 262              		.file 57 "c:\\users\\salma chatagny\\documents\\epfl\\ba6\\microinformatique\\eclipse_e-puck2\\too
 263              		.file 58 "../../lib/e-puck2_main-processor/src/msgbus/messagebus.h"
 264              		.file 59 "../../lib/e-puck2_main-processor/src/parameter/parameter.h"
 265              		.file 60 "./main.h"
 266              		.file 61 "./maze_mapping.h"
 267              		.file 62 "../../lib/e-puck2_main-processor/ChibiOS//os/rt/include/chsys.h"
 268              		.file 63 "../../lib/e-puck2_main-processor/ChibiOS//os/hal/include/hal.h"
 269              		.file 64 "../../lib/e-puck2_main-processor/src/memory_protection.h"
 270              		.file 65 "../../lib/e-puck2_main-processor/src/sensors/proximity.h"
 271              		.file 66 "../../lib/e-puck2_main-processor/src/motors.h"
 272              		.file 67 "./process_sensor.h"
 273              		.file 68 "../../lib/e-puck2_main-processor/ChibiOS//os/rt/include/chthreads.h"