ARM GAS  C:\Users\afgou\AppData\Local\Temp\cc9te5UK.s 			page 1


   1              		.cpu cortex-m4
   2              		.eabi_attribute 27, 1
   3              		.eabi_attribute 28, 1
   4              		.eabi_attribute 20, 1
   5              		.eabi_attribute 21, 1
   6              		.eabi_attribute 23, 3
   7              		.eabi_attribute 24, 1
   8              		.eabi_attribute 25, 1
   9              		.eabi_attribute 26, 1
  10              		.eabi_attribute 30, 2
  11              		.eabi_attribute 34, 1
  12              		.eabi_attribute 18, 4
  13              		.file	"maze_mapping.c"
  14              		.text
  15              	.Ltext0:
  16              		.cfi_sections	.debug_frame
  17              		.section	.text.maze_mapping_multi_check_case.part.1,"ax",%progbits
  18              		.align	1
  19              		.p2align 4,,15
  20              		.syntax unified
  21              		.thumb
  22              		.thumb_func
  23              		.fpu fpv4-sp-d16
  24              		.type	maze_mapping_multi_check_case.part.1, %function
  25              	maze_mapping_multi_check_case.part.1:
  26              	.LFB276:
  27              		.file 1 "maze_mapping.c"
  28              		.loc 1 297 0
  29              		.cfi_startproc
  30              		@ args = 0, pretend = 0, frame = 8
  31              		@ frame_needed = 0, uses_anonymous_args = 0
  32 0000 00B5     		push	{lr}
  33              		.cfi_def_cfa_offset 4
  34              		.cfi_offset 14, -4
  35              		.loc 1 301 0
  36 0002 0C49     		ldr	r1, .L8
  37              		.loc 1 297 0
  38 0004 0C4A     		ldr	r2, .L8+4
  39              		.loc 1 301 0
  40 0006 0B78     		ldrb	r3, [r1]	@ zero_extendqisi2
  41              		.loc 1 297 0
  42 0008 1068     		ldr	r0, [r2]
  43 000a 83B0     		sub	sp, sp, #12
  44              		.cfi_def_cfa_offset 16
  45              		.loc 1 301 0
  46 000c 042B     		cmp	r3, #4
  47              		.loc 1 297 0
  48 000e 0190     		str	r0, [sp, #4]
  49              	.LVL0:
  50              		.loc 1 301 0
  51 0010 09D8     		bhi	.L2
  52              		.loc 1 303 0
  53 0012 0133     		adds	r3, r3, #1
  54 0014 0B70     		strb	r3, [r1]
  55              		.loc 1 304 0
  56 0016 0020     		movs	r0, #0
  57              	.L3:
ARM GAS  C:\Users\afgou\AppData\Local\Temp\cc9te5UK.s 			page 2


  58              		.loc 1 318 0
  59 0018 0199     		ldr	r1, [sp, #4]
  60 001a 1368     		ldr	r3, [r2]
  61 001c 9942     		cmp	r1, r3
  62 001e 06D1     		bne	.L7
  63 0020 03B0     		add	sp, sp, #12
  64              		.cfi_remember_state
  65              		.cfi_def_cfa_offset 4
  66              		@ sp needed
  67 0022 5DF804FB 		ldr	pc, [sp], #4
  68              	.L2:
  69              		.cfi_restore_state
  70              		.loc 1 308 0
  71 0026 0023     		movs	r3, #0
  72 0028 0B70     		strb	r3, [r1]
  73              		.loc 1 309 0
  74 002a 0120     		movs	r0, #1
  75 002c F4E7     		b	.L3
  76              	.L7:
  77              		.loc 1 318 0
  78 002e FFF7FEFF 		bl	__stack_chk_fail
  79              	.LVL1:
  80              	.L9:
  81 0032 00BF     		.align	2
  82              	.L8:
  83 0034 00000000 		.word	.LANCHOR0
  84 0038 00000000 		.word	__stack_chk_guard
  85              		.cfi_endproc
  86              	.LFE276:
  87              		.size	maze_mapping_multi_check_case.part.1, .-maze_mapping_multi_check_case.part.1
  88              		.section	.text.chprintf.constprop.6,"ax",%progbits
  89              		.align	1
  90              		.p2align 4,,15
  91              		.syntax unified
  92              		.thumb
  93              		.thumb_func
  94              		.fpu fpv4-sp-d16
  95              		.type	chprintf.constprop.6, %function
  96              	chprintf.constprop.6:
  97              	.LFB281:
  98              		.file 2 "../../lib/e-puck2_main-processor/ChibiOS//os/hal/lib/streams/chprintf.h"
  99              		.loc 2 69 0
 100              		.cfi_startproc
 101              		@ args = 4, pretend = 12, frame = 8
 102              		@ frame_needed = 0, uses_anonymous_args = 1
 103              	.LVL2:
 104 0000 0EB4     		push	{r1, r2, r3}
 105              		.cfi_def_cfa_offset 12
 106              		.cfi_offset 1, -12
 107              		.cfi_offset 2, -8
 108              		.cfi_offset 3, -4
 109 0002 10B5     		push	{r4, lr}
 110              		.cfi_def_cfa_offset 20
 111              		.cfi_offset 4, -20
 112              		.cfi_offset 14, -16
 113 0004 83B0     		sub	sp, sp, #12
 114              		.cfi_def_cfa_offset 32
ARM GAS  C:\Users\afgou\AppData\Local\Temp\cc9te5UK.s 			page 3


 115              		.loc 2 69 0
 116 0006 05AA     		add	r2, sp, #20
 117 0008 094C     		ldr	r4, .L14
 118 000a 52F8041B 		ldr	r1, [r2], #4
 119 000e 2368     		ldr	r3, [r4]
 120              		.loc 2 74 0
 121 0010 0848     		ldr	r0, .L14+4
 122              	.LVL3:
 123              		.loc 2 73 0
 124 0012 0092     		str	r2, [sp]
 125              		.loc 2 69 0
 126 0014 0193     		str	r3, [sp, #4]
 127              	.LVL4:
 128              		.loc 2 74 0
 129 0016 FFF7FEFF 		bl	chvprintf
 130              	.LVL5:
 131              		.loc 2 78 0
 132 001a 019A     		ldr	r2, [sp, #4]
 133 001c 2368     		ldr	r3, [r4]
 134 001e 9A42     		cmp	r2, r3
 135 0020 04D1     		bne	.L13
 136 0022 03B0     		add	sp, sp, #12
 137              		.cfi_remember_state
 138              		.cfi_def_cfa_offset 20
 139              		@ sp needed
 140 0024 BDE81040 		pop	{r4, lr}
 141              		.cfi_restore 14
 142              		.cfi_restore 4
 143              		.cfi_def_cfa_offset 12
 144 0028 03B0     		add	sp, sp, #12
 145              		.cfi_restore 3
 146              		.cfi_restore 2
 147              		.cfi_restore 1
 148              		.cfi_def_cfa_offset 0
 149 002a 7047     		bx	lr
 150              	.L13:
 151              		.cfi_restore_state
 152 002c FFF7FEFF 		bl	__stack_chk_fail
 153              	.LVL6:
 154              	.L15:
 155              		.align	2
 156              	.L14:
 157 0030 00000000 		.word	__stack_chk_guard
 158 0034 00000000 		.word	SD3
 159              		.cfi_endproc
 160              	.LFE281:
 161              		.size	chprintf.constprop.6, .-chprintf.constprop.6
 162              		.section	.text.maze_mapping_corridor_gestion,"ax",%progbits
 163              		.align	1
 164              		.p2align 4,,15
 165              		.global	maze_mapping_corridor_gestion
 166              		.syntax unified
 167              		.thumb
 168              		.thumb_func
 169              		.fpu fpv4-sp-d16
 170              		.type	maze_mapping_corridor_gestion, %function
 171              	maze_mapping_corridor_gestion:
ARM GAS  C:\Users\afgou\AppData\Local\Temp\cc9te5UK.s 			page 4


 172              	.LFB260:
 173              		.loc 1 50 0
 174              		.cfi_startproc
 175              		@ args = 0, pretend = 0, frame = 8
 176              		@ frame_needed = 0, uses_anonymous_args = 0
 177              	.LVL7:
 178 0000 10B5     		push	{r4, lr}
 179              		.cfi_def_cfa_offset 8
 180              		.cfi_offset 4, -8
 181              		.cfi_offset 14, -4
 182 0002 0D4C     		ldr	r4, .L25
 183 0004 82B0     		sub	sp, sp, #8
 184              		.cfi_def_cfa_offset 16
 185              		.loc 1 50 0
 186 0006 2368     		ldr	r3, [r4]
 187 0008 0193     		str	r3, [sp, #4]
 188              		.loc 1 51 0
 189 000a 68B1     		cbz	r0, .L17
 190              		.loc 1 51 0 is_stmt 0 discriminator 1
 191 000c 51B9     		cbnz	r1, .L23
 192              	.LVL8:
 193              	.LBB25:
 194              	.LBB26:
 195              		.loc 1 54 0 is_stmt 1
 196 000e 0B49     		ldr	r1, .L25+4
 197              	.LVL9:
 198 0010 0B48     		ldr	r0, .L25+8
 199              	.LVL10:
 200 0012 FFF7FEFF 		bl	chprintf.constprop.6
 201              	.LVL11:
 202              		.loc 1 59 0
 203 0016 0320     		movs	r0, #3
 204              	.LVL12:
 205              	.L19:
 206              	.LBE26:
 207              	.LBE25:
 208              		.loc 1 60 0
 209 0018 019A     		ldr	r2, [sp, #4]
 210 001a 2368     		ldr	r3, [r4]
 211 001c 9A42     		cmp	r2, r3
 212 001e 09D1     		bne	.L24
 213 0020 02B0     		add	sp, sp, #8
 214              		.cfi_remember_state
 215              		.cfi_def_cfa_offset 8
 216              		@ sp needed
 217 0022 10BD     		pop	{r4, pc}
 218              	.LVL13:
 219              	.L23:
 220              		.cfi_restore_state
 221              		.loc 1 52 0
 222 0024 0020     		movs	r0, #0
 223              	.LVL14:
 224 0026 F7E7     		b	.L19
 225              	.LVL15:
 226              	.L17:
 227              	.LBB28:
 228              	.LBB27:
ARM GAS  C:\Users\afgou\AppData\Local\Temp\cc9te5UK.s 			page 5


 229              		.loc 1 54 0
 230 0028 0449     		ldr	r1, .L25+4
 231              	.LVL16:
 232 002a 0548     		ldr	r0, .L25+8
 233              	.LVL17:
 234 002c FFF7FEFF 		bl	chprintf.constprop.6
 235              	.LVL18:
 236              		.loc 1 57 0
 237 0030 0120     		movs	r0, #1
 238 0032 F1E7     		b	.L19
 239              	.LVL19:
 240              	.L24:
 241              	.LBE27:
 242              	.LBE28:
 243              		.loc 1 60 0
 244 0034 FFF7FEFF 		bl	__stack_chk_fail
 245              	.LVL20:
 246              	.L26:
 247              		.align	2
 248              	.L25:
 249 0038 00000000 		.word	__stack_chk_guard
 250 003c 00000000 		.word	.LC0
 251 0040 00000000 		.word	SD3
 252              		.cfi_endproc
 253              	.LFE260:
 254              		.size	maze_mapping_corridor_gestion, .-maze_mapping_corridor_gestion
 255              		.section	.text.maze_mapping_deadend_gestion,"ax",%progbits
 256              		.align	1
 257              		.p2align 4,,15
 258              		.global	maze_mapping_deadend_gestion
 259              		.syntax unified
 260              		.thumb
 261              		.thumb_func
 262              		.fpu fpv4-sp-d16
 263              		.type	maze_mapping_deadend_gestion, %function
 264              	maze_mapping_deadend_gestion:
 265              	.LFB262:
 266              		.loc 1 84 0
 267              		.cfi_startproc
 268              		@ args = 0, pretend = 0, frame = 8
 269              		@ frame_needed = 0, uses_anonymous_args = 0
 270 0000 10B5     		push	{r4, lr}
 271              		.cfi_def_cfa_offset 8
 272              		.cfi_offset 4, -8
 273              		.cfi_offset 14, -4
 274              	.LBB35:
 275              	.LBB36:
 276              		.loc 1 299 0
 277 0002 154B     		ldr	r3, .L36
 278              	.LBE36:
 279              	.LBE35:
 280              		.loc 1 84 0
 281 0004 154C     		ldr	r4, .L36+4
 282              	.LBB41:
 283              	.LBB37:
 284              		.loc 1 299 0
 285 0006 1A78     		ldrb	r2, [r3]	@ zero_extendqisi2
ARM GAS  C:\Users\afgou\AppData\Local\Temp\cc9te5UK.s 			page 6


 286              	.LBE37:
 287              	.LBE41:
 288              		.loc 1 84 0
 289 0008 2168     		ldr	r1, [r4]
 290 000a 82B0     		sub	sp, sp, #8
 291              		.cfi_def_cfa_offset 16
 292              	.LBB42:
 293              	.LBB38:
 294              		.loc 1 299 0
 295 000c 032A     		cmp	r2, #3
 296              	.LBE38:
 297              	.LBE42:
 298              		.loc 1 84 0
 299 000e 0191     		str	r1, [sp, #4]
 300              	.LVL21:
 301              	.LBB43:
 302              	.LBB39:
 303              		.loc 1 299 0
 304 0010 0AD0     		beq	.L34
 305              		.loc 1 315 0
 306 0012 1349     		ldr	r1, .L36+8
 307 0014 0020     		movs	r0, #0
 308              		.loc 1 314 0
 309 0016 0322     		movs	r2, #3
 310              		.loc 1 315 0
 311 0018 0870     		strb	r0, [r1]
 312              	.LVL22:
 313              		.loc 1 314 0
 314 001a 1A70     		strb	r2, [r3]
 315              	.L30:
 316              	.LBE39:
 317              	.LBE43:
 318              		.loc 1 95 0
 319 001c 019A     		ldr	r2, [sp, #4]
 320 001e 2368     		ldr	r3, [r4]
 321 0020 9A42     		cmp	r2, r3
 322 0022 16D1     		bne	.L35
 323 0024 02B0     		add	sp, sp, #8
 324              		.cfi_remember_state
 325              		.cfi_def_cfa_offset 8
 326              		@ sp needed
 327 0026 10BD     		pop	{r4, pc}
 328              	.LVL23:
 329              	.L34:
 330              		.cfi_restore_state
 331              	.LBB44:
 332              	.LBB40:
 333 0028 FFF7FEFF 		bl	maze_mapping_multi_check_case.part.1
 334              	.LVL24:
 335              	.LBE40:
 336              	.LBE44:
 337              		.loc 1 85 0
 338 002c 0028     		cmp	r0, #0
 339 002e F5D0     		beq	.L30
 340              	.LBB45:
 341              		.loc 1 89 0
 342 0030 0C49     		ldr	r1, .L36+12
ARM GAS  C:\Users\afgou\AppData\Local\Temp\cc9te5UK.s 			page 7


 343 0032 0D48     		ldr	r0, .L36+16
 344 0034 FFF7FEFF 		bl	chprintf.constprop.6
 345              	.LVL25:
 346              		.loc 1 90 0
 347 0038 0C4A     		ldr	r2, .L36+20
 348 003a 92F90030 		ldrsb	r3, [r2]
 349 003e 002B     		cmp	r3, #0
 350              		.loc 1 91 0
 351 0040 C4BF     		itt	gt
 352 0042 03F1FF33 		addgt	r3, r3, #-1
 353 0046 1370     		strbgt	r3, [r2]
 354              		.loc 1 92 0
 355 0048 094B     		ldr	r3, .L36+24
 356 004a 0022     		movs	r2, #0
 357 004c 1A70     		strb	r2, [r3]
 358 004e 0420     		movs	r0, #4
 359 0050 E4E7     		b	.L30
 360              	.L35:
 361              	.LBE45:
 362              		.loc 1 95 0
 363 0052 FFF7FEFF 		bl	__stack_chk_fail
 364              	.LVL26:
 365              	.L37:
 366 0056 00BF     		.align	2
 367              	.L36:
 368 0058 00000000 		.word	.LANCHOR1
 369 005c 00000000 		.word	__stack_chk_guard
 370 0060 00000000 		.word	.LANCHOR0
 371 0064 00000000 		.word	.LC1
 372 0068 00000000 		.word	SD3
 373 006c 00000000 		.word	.LANCHOR2
 374 0070 00000000 		.word	.LANCHOR3
 375              		.cfi_endproc
 376              	.LFE262:
 377              		.size	maze_mapping_deadend_gestion, .-maze_mapping_deadend_gestion
 378              		.section	.text.maze_mapping_mode_is_selected,"ax",%progbits
 379              		.align	1
 380              		.p2align 4,,15
 381              		.global	maze_mapping_mode_is_selected
 382              		.syntax unified
 383              		.thumb
 384              		.thumb_func
 385              		.fpu fpv4-sp-d16
 386              		.type	maze_mapping_mode_is_selected, %function
 387              	maze_mapping_mode_is_selected:
 388              	.LFB268:
 389              		.loc 1 290 0
 390              		.cfi_startproc
 391              		@ args = 0, pretend = 0, frame = 8
 392              		@ frame_needed = 0, uses_anonymous_args = 0
 393 0000 00B5     		push	{lr}
 394              		.cfi_def_cfa_offset 4
 395              		.cfi_offset 14, -4
 396 0002 094B     		ldr	r3, .L42
 397              		.loc 1 291 0
 398 0004 0949     		ldr	r1, .L42+4
 399              		.loc 1 290 0
ARM GAS  C:\Users\afgou\AppData\Local\Temp\cc9te5UK.s 			page 8


 400 0006 1A68     		ldr	r2, [r3]
 401              		.loc 1 291 0
 402 0008 0878     		ldrb	r0, [r1]	@ zero_extendqisi2
 403              		.loc 1 290 0
 404 000a 83B0     		sub	sp, sp, #12
 405              		.cfi_def_cfa_offset 16
 406              		.loc 1 295 0
 407 000c 0030     		adds	r0, r0, #0
 408              		.loc 1 290 0
 409 000e 0192     		str	r2, [sp, #4]
 410              		.loc 1 295 0
 411 0010 019A     		ldr	r2, [sp, #4]
 412 0012 1B68     		ldr	r3, [r3]
 413 0014 18BF     		it	ne
 414 0016 0120     		movne	r0, #1
 415 0018 9A42     		cmp	r2, r3
 416 001a 02D1     		bne	.L41
 417 001c 03B0     		add	sp, sp, #12
 418              		.cfi_remember_state
 419              		.cfi_def_cfa_offset 4
 420              		@ sp needed
 421 001e 5DF804FB 		ldr	pc, [sp], #4
 422              	.L41:
 423              		.cfi_restore_state
 424 0022 FFF7FEFF 		bl	__stack_chk_fail
 425              	.LVL27:
 426              	.L43:
 427 0026 00BF     		.align	2
 428              	.L42:
 429 0028 00000000 		.word	__stack_chk_guard
 430 002c 00000000 		.word	.LANCHOR4
 431              		.cfi_endproc
 432              	.LFE268:
 433              		.size	maze_mapping_mode_is_selected, .-maze_mapping_mode_is_selected
 434              		.section	.text.maze_mapping_multi_check_case,"ax",%progbits
 435              		.align	1
 436              		.p2align 4,,15
 437              		.global	maze_mapping_multi_check_case
 438              		.syntax unified
 439              		.thumb
 440              		.thumb_func
 441              		.fpu fpv4-sp-d16
 442              		.type	maze_mapping_multi_check_case, %function
 443              	maze_mapping_multi_check_case:
 444              	.LFB269:
 445              		.loc 1 298 0
 446              		.cfi_startproc
 447              		@ args = 0, pretend = 0, frame = 8
 448              		@ frame_needed = 0, uses_anonymous_args = 0
 449              	.LVL28:
 450 0000 10B5     		push	{r4, lr}
 451              		.cfi_def_cfa_offset 8
 452              		.cfi_offset 4, -8
 453              		.cfi_offset 14, -4
 454              		.loc 1 299 0
 455 0002 0F4A     		ldr	r2, .L51
 456              		.loc 1 298 0
ARM GAS  C:\Users\afgou\AppData\Local\Temp\cc9te5UK.s 			page 9


 457 0004 0F4B     		ldr	r3, .L51+4
 458              		.loc 1 299 0
 459 0006 1178     		ldrb	r1, [r2]	@ zero_extendqisi2
 460              		.loc 1 298 0
 461 0008 1C68     		ldr	r4, [r3]
 462 000a 82B0     		sub	sp, sp, #8
 463              		.cfi_def_cfa_offset 16
 464              		.loc 1 299 0
 465 000c 8142     		cmp	r1, r0
 466              		.loc 1 298 0
 467 000e 0194     		str	r4, [sp, #4]
 468              		.loc 1 299 0
 469 0010 0AD0     		beq	.L50
 470              		.loc 1 318 0
 471 0012 0199     		ldr	r1, [sp, #4]
 472 0014 1B68     		ldr	r3, [r3]
 473              		.loc 1 315 0
 474 0016 0C4C     		ldr	r4, .L51+8
 475              		.loc 1 314 0
 476 0018 1070     		strb	r0, [r2]
 477              		.loc 1 318 0
 478 001a 9942     		cmp	r1, r3
 479              		.loc 1 315 0
 480 001c 4FF00000 		mov	r0, #0
 481              	.LVL29:
 482 0020 2070     		strb	r0, [r4]
 483              		.loc 1 318 0
 484 0022 0AD1     		bne	.L49
 485 0024 02B0     		add	sp, sp, #8
 486              		.cfi_remember_state
 487              		.cfi_def_cfa_offset 8
 488              		@ sp needed
 489 0026 10BD     		pop	{r4, pc}
 490              	.LVL30:
 491              	.L50:
 492              		.cfi_restore_state
 493 0028 019A     		ldr	r2, [sp, #4]
 494 002a 1B68     		ldr	r3, [r3]
 495 002c 9A42     		cmp	r2, r3
 496 002e 04D1     		bne	.L49
 497 0030 02B0     		add	sp, sp, #8
 498              		.cfi_remember_state
 499              		.cfi_def_cfa_offset 8
 500              		@ sp needed
 501 0032 BDE81040 		pop	{r4, lr}
 502              		.cfi_restore 14
 503              		.cfi_restore 4
 504              		.cfi_def_cfa_offset 0
 505 0036 FFF7FEBF 		b	maze_mapping_multi_check_case.part.1
 506              	.LVL31:
 507              	.L49:
 508              		.cfi_restore_state
 509 003a FFF7FEFF 		bl	__stack_chk_fail
 510              	.LVL32:
 511              	.L52:
 512 003e 00BF     		.align	2
 513              	.L51:
ARM GAS  C:\Users\afgou\AppData\Local\Temp\cc9te5UK.s 			page 10


 514 0040 00000000 		.word	.LANCHOR1
 515 0044 00000000 		.word	__stack_chk_guard
 516 0048 00000000 		.word	.LANCHOR0
 517              		.cfi_endproc
 518              	.LFE269:
 519              		.size	maze_mapping_multi_check_case, .-maze_mapping_multi_check_case
 520              		.section	.text.maze_mapping_process_end_of_maze,"ax",%progbits
 521              		.align	1
 522              		.p2align 4,,15
 523              		.global	maze_mapping_process_end_of_maze
 524              		.syntax unified
 525              		.thumb
 526              		.thumb_func
 527              		.fpu fpv4-sp-d16
 528              		.type	maze_mapping_process_end_of_maze, %function
 529              	maze_mapping_process_end_of_maze:
 530              	.LFB270:
 531              		.loc 1 321 0
 532              		.cfi_startproc
 533              		@ args = 0, pretend = 0, frame = 8
 534              		@ frame_needed = 0, uses_anonymous_args = 0
 535 0000 10B5     		push	{r4, lr}
 536              		.cfi_def_cfa_offset 8
 537              		.cfi_offset 4, -8
 538              		.cfi_offset 14, -4
 539 0002 094B     		ldr	r3, .L57
 540              		.loc 1 322 0
 541 0004 0949     		ldr	r1, .L57+4
 542              		.loc 1 321 0
 543 0006 1A68     		ldr	r2, [r3]
 544              		.loc 1 322 0
 545 0008 91F90010 		ldrsb	r1, [r1]
 546 000c 0848     		ldr	r0, .L57+8
 547              		.loc 1 321 0
 548 000e 82B0     		sub	sp, sp, #8
 549              		.cfi_def_cfa_offset 16
 550              		.loc 1 322 0
 551 0010 0624     		movs	r4, #6
 552              		.loc 1 321 0
 553 0012 0192     		str	r2, [sp, #4]
 554              		.loc 1 323 0
 555 0014 019A     		ldr	r2, [sp, #4]
 556 0016 1B68     		ldr	r3, [r3]
 557              		.loc 1 322 0
 558 0018 4454     		strb	r4, [r0, r1]
 559              		.loc 1 323 0
 560 001a 9A42     		cmp	r2, r3
 561 001c 01D1     		bne	.L56
 562 001e 02B0     		add	sp, sp, #8
 563              		.cfi_remember_state
 564              		.cfi_def_cfa_offset 8
 565              		@ sp needed
 566 0020 10BD     		pop	{r4, pc}
 567              	.L56:
 568              		.cfi_restore_state
 569 0022 FFF7FEFF 		bl	__stack_chk_fail
 570              	.LVL33:
ARM GAS  C:\Users\afgou\AppData\Local\Temp\cc9te5UK.s 			page 11


 571              	.L58:
 572 0026 00BF     		.align	2
 573              	.L57:
 574 0028 00000000 		.word	__stack_chk_guard
 575 002c 00000000 		.word	.LANCHOR2
 576 0030 00000000 		.word	.LANCHOR5
 577              		.cfi_endproc
 578              	.LFE270:
 579              		.size	maze_mapping_process_end_of_maze, .-maze_mapping_process_end_of_maze
 580              		.section	.text.maze_mapping_set_rgb_leds,"ax",%progbits
 581              		.align	1
 582              		.p2align 4,,15
 583              		.global	maze_mapping_set_rgb_leds
 584              		.syntax unified
 585              		.thumb
 586              		.thumb_func
 587              		.fpu fpv4-sp-d16
 588              		.type	maze_mapping_set_rgb_leds, %function
 589              	maze_mapping_set_rgb_leds:
 590              	.LFB271:
 591              		.loc 1 326 0
 592              		.cfi_startproc
 593              		@ args = 0, pretend = 0, frame = 8
 594              		@ frame_needed = 0, uses_anonymous_args = 0
 595              	.LVL34:
 596 0000 2DE9F041 		push	{r4, r5, r6, r7, r8, lr}
 597              		.cfi_def_cfa_offset 24
 598              		.cfi_offset 4, -24
 599              		.cfi_offset 5, -20
 600              		.cfi_offset 6, -16
 601              		.cfi_offset 7, -12
 602              		.cfi_offset 8, -8
 603              		.cfi_offset 14, -4
 604 0004 DFF83880 		ldr	r8, .L65
 605 0008 82B0     		sub	sp, sp, #8
 606              		.cfi_def_cfa_offset 32
 607              		.loc 1 326 0
 608 000a D8F80030 		ldr	r3, [r8]
 609 000e 0193     		str	r3, [sp, #4]
 610              	.LVL35:
 611 0010 0746     		mov	r7, r0
 612 0012 0E46     		mov	r6, r1
 613 0014 1546     		mov	r5, r2
 614              		.loc 1 329 0
 615 0016 0024     		movs	r4, #0
 616              	.LVL36:
 617              	.L60:
 618              		.loc 1 330 0 discriminator 3
 619 0018 E0B2     		uxtb	r0, r4
 620 001a 2B46     		mov	r3, r5
 621 001c 3246     		mov	r2, r6
 622 001e 3946     		mov	r1, r7
 623              		.loc 1 329 0 discriminator 3
 624 0020 0134     		adds	r4, r4, #1
 625              	.LVL37:
 626              		.loc 1 330 0 discriminator 3
 627 0022 FFF7FEFF 		bl	set_rgb_led
ARM GAS  C:\Users\afgou\AppData\Local\Temp\cc9te5UK.s 			page 12


 628              	.LVL38:
 629              		.loc 1 329 0 discriminator 3
 630 0026 042C     		cmp	r4, #4
 631 0028 F6D1     		bne	.L60
 632              		.loc 1 331 0
 633 002a 019A     		ldr	r2, [sp, #4]
 634 002c D8F80030 		ldr	r3, [r8]
 635 0030 9A42     		cmp	r2, r3
 636 0032 02D1     		bne	.L64
 637 0034 02B0     		add	sp, sp, #8
 638              		.cfi_remember_state
 639              		.cfi_def_cfa_offset 24
 640              		@ sp needed
 641 0036 BDE8F081 		pop	{r4, r5, r6, r7, r8, pc}
 642              	.LVL39:
 643              	.L64:
 644              		.cfi_restore_state
 645 003a FFF7FEFF 		bl	__stack_chk_fail
 646              	.LVL40:
 647              	.L66:
 648 003e 00BF     		.align	2
 649              	.L65:
 650 0040 00000000 		.word	__stack_chk_guard
 651              		.cfi_endproc
 652              	.LFE271:
 653              		.size	maze_mapping_set_rgb_leds, .-maze_mapping_set_rgb_leds
 654              		.section	.text.maze_mapping_update_red_leds,"ax",%progbits
 655              		.align	1
 656              		.p2align 4,,15
 657              		.global	maze_mapping_update_red_leds
 658              		.syntax unified
 659              		.thumb
 660              		.thumb_func
 661              		.fpu fpv4-sp-d16
 662              		.type	maze_mapping_update_red_leds, %function
 663              	maze_mapping_update_red_leds:
 664              	.LFB272:
 665              		.loc 1 334 0
 666              		.cfi_startproc
 667              		@ args = 0, pretend = 0, frame = 8
 668              		@ frame_needed = 0, uses_anonymous_args = 0
 669              	.LVL41:
 670 0000 F0B5     		push	{r4, r5, r6, r7, lr}
 671              		.cfi_def_cfa_offset 20
 672              		.cfi_offset 4, -20
 673              		.cfi_offset 5, -16
 674              		.cfi_offset 6, -12
 675              		.cfi_offset 7, -8
 676              		.cfi_offset 14, -4
 677 0002 104C     		ldr	r4, .L72
 678 0004 83B0     		sub	sp, sp, #12
 679              		.cfi_def_cfa_offset 32
 680              		.loc 1 334 0
 681 0006 0E46     		mov	r6, r1
 682 0008 2168     		ldr	r1, [r4]
 683              	.LVL42:
 684 000a 0191     		str	r1, [sp, #4]
ARM GAS  C:\Users\afgou\AppData\Local\Temp\cc9te5UK.s 			page 13


 685              		.loc 1 335 0
 686 000c 0146     		mov	r1, r0
 687 000e 0020     		movs	r0, #0
 688              	.LVL43:
 689              		.loc 1 334 0
 690 0010 1546     		mov	r5, r2
 691 0012 1F46     		mov	r7, r3
 692              		.loc 1 335 0
 693 0014 FFF7FEFF 		bl	set_led
 694              	.LVL44:
 695              		.loc 1 336 0
 696 0018 3146     		mov	r1, r6
 697 001a 0120     		movs	r0, #1
 698 001c FFF7FEFF 		bl	set_led
 699              	.LVL45:
 700              		.loc 1 337 0
 701 0020 2946     		mov	r1, r5
 702 0022 0220     		movs	r0, #2
 703 0024 FFF7FEFF 		bl	set_led
 704              	.LVL46:
 705              		.loc 1 338 0
 706 0028 0199     		ldr	r1, [sp, #4]
 707 002a 2268     		ldr	r2, [r4]
 708 002c 9142     		cmp	r1, r2
 709 002e 06D1     		bne	.L71
 710 0030 3946     		mov	r1, r7
 711 0032 0320     		movs	r0, #3
 712              		.loc 1 339 0
 713 0034 03B0     		add	sp, sp, #12
 714              		.cfi_remember_state
 715              		.cfi_def_cfa_offset 20
 716              		@ sp needed
 717 0036 BDE8F040 		pop	{r4, r5, r6, r7, lr}
 718              		.cfi_restore 14
 719              		.cfi_restore 7
 720              		.cfi_restore 6
 721              		.cfi_restore 5
 722              		.cfi_restore 4
 723              		.cfi_def_cfa_offset 0
 724              	.LVL47:
 725              		.loc 1 338 0
 726 003a FFF7FEBF 		b	set_led
 727              	.LVL48:
 728              	.L71:
 729              		.cfi_restore_state
 730 003e FFF7FEFF 		bl	__stack_chk_fail
 731              	.LVL49:
 732              	.L73:
 733 0042 00BF     		.align	2
 734              	.L72:
 735 0044 00000000 		.word	__stack_chk_guard
 736              		.cfi_endproc
 737              	.LFE272:
 738              		.size	maze_mapping_update_red_leds, .-maze_mapping_update_red_leds
 739              		.section	.text.maze_mapping_update_rgb_leds,"ax",%progbits
 740              		.align	1
 741              		.p2align 4,,15
ARM GAS  C:\Users\afgou\AppData\Local\Temp\cc9te5UK.s 			page 14


 742              		.global	maze_mapping_update_rgb_leds
 743              		.syntax unified
 744              		.thumb
 745              		.thumb_func
 746              		.fpu fpv4-sp-d16
 747              		.type	maze_mapping_update_rgb_leds, %function
 748              	maze_mapping_update_rgb_leds:
 749              	.LFB273:
 750              		.loc 1 342 0
 751              		.cfi_startproc
 752              		@ args = 0, pretend = 0, frame = 8
 753              		@ frame_needed = 0, uses_anonymous_args = 0
 754 0000 30B5     		push	{r4, r5, lr}
 755              		.cfi_def_cfa_offset 12
 756              		.cfi_offset 4, -12
 757              		.cfi_offset 5, -8
 758              		.cfi_offset 14, -4
 759              		.loc 1 343 0
 760 0002 234B     		ldr	r3, .L95
 761              		.loc 1 342 0
 762 0004 234D     		ldr	r5, .L95+4
 763              		.loc 1 343 0
 764 0006 1B78     		ldrb	r3, [r3]	@ zero_extendqisi2
 765              		.loc 1 342 0
 766 0008 2A68     		ldr	r2, [r5]
 767 000a 83B0     		sub	sp, sp, #12
 768              		.cfi_def_cfa_offset 24
 769              	.LBB46:
 770              	.LBB47:
 771              		.loc 1 329 0
 772 000c 0024     		movs	r4, #0
 773              	.LBE47:
 774              	.LBE46:
 775              		.loc 1 342 0
 776 000e 0192     		str	r2, [sp, #4]
 777              		.loc 1 343 0
 778 0010 032B     		cmp	r3, #3
 779 0012 03D8     		bhi	.L75
 780 0014 DFE803F0 		tbb	[pc, r3]
 781              	.L77:
 782 0018 25       		.byte	(.L76-.L77)/2
 783 0019 1B       		.byte	(.L78-.L77)/2
 784 001a 2F       		.byte	(.L79-.L77)/2
 785 001b 11       		.byte	(.L80-.L77)/2
 786              		.p2align 1
 787              	.L75:
 788              	.LVL50:
 789              	.LBB49:
 790              	.LBB48:
 791              		.loc 1 330 0
 792 001c 0023     		movs	r3, #0
 793 001e E0B2     		uxtb	r0, r4
 794 0020 1A46     		mov	r2, r3
 795 0022 1946     		mov	r1, r3
 796              		.loc 1 329 0
 797 0024 0134     		adds	r4, r4, #1
 798              	.LVL51:
ARM GAS  C:\Users\afgou\AppData\Local\Temp\cc9te5UK.s 			page 15


 799              		.loc 1 330 0
 800 0026 FFF7FEFF 		bl	set_rgb_led
 801              	.LVL52:
 802              		.loc 1 329 0
 803 002a 042C     		cmp	r4, #4
 804 002c F6D1     		bne	.L75
 805              	.LVL53:
 806              	.L74:
 807              	.LBE48:
 808              	.LBE49:
 809              		.loc 1 365 0
 810 002e 019A     		ldr	r2, [sp, #4]
 811 0030 2B68     		ldr	r3, [r5]
 812 0032 9A42     		cmp	r2, r3
 813 0034 29D1     		bne	.L94
 814 0036 03B0     		add	sp, sp, #12
 815              		.cfi_remember_state
 816              		.cfi_def_cfa_offset 12
 817              		@ sp needed
 818 0038 30BD     		pop	{r4, r5, pc}
 819              	.L80:
 820              		.cfi_restore_state
 821              	.LVL54:
 822              	.LBB50:
 823              	.LBB51:
 824              		.loc 1 330 0
 825 003a 0022     		movs	r2, #0
 826 003c E0B2     		uxtb	r0, r4
 827 003e 1146     		mov	r1, r2
 828 0040 6423     		movs	r3, #100
 829              		.loc 1 329 0
 830 0042 0134     		adds	r4, r4, #1
 831              	.LVL55:
 832              		.loc 1 330 0
 833 0044 FFF7FEFF 		bl	set_rgb_led
 834              	.LVL56:
 835              		.loc 1 329 0
 836 0048 042C     		cmp	r4, #4
 837 004a F6D1     		bne	.L80
 838 004c EFE7     		b	.L74
 839              	.LVL57:
 840              	.L78:
 841              	.LBE51:
 842              	.LBE50:
 843              	.LBB52:
 844              	.LBB53:
 845              		.loc 1 330 0
 846 004e 0023     		movs	r3, #0
 847 0050 E0B2     		uxtb	r0, r4
 848 0052 1946     		mov	r1, r3
 849 0054 6422     		movs	r2, #100
 850              		.loc 1 329 0
 851 0056 0134     		adds	r4, r4, #1
 852              	.LVL58:
 853              		.loc 1 330 0
 854 0058 FFF7FEFF 		bl	set_rgb_led
 855              	.LVL59:
ARM GAS  C:\Users\afgou\AppData\Local\Temp\cc9te5UK.s 			page 16


 856              		.loc 1 329 0
 857 005c 042C     		cmp	r4, #4
 858 005e F6D1     		bne	.L78
 859 0060 E5E7     		b	.L74
 860              	.LVL60:
 861              	.L76:
 862              	.LBE53:
 863              	.LBE52:
 864              	.LBB54:
 865              	.LBB55:
 866              		.loc 1 330 0
 867 0062 6423     		movs	r3, #100
 868 0064 E0B2     		uxtb	r0, r4
 869 0066 1A46     		mov	r2, r3
 870 0068 1946     		mov	r1, r3
 871              		.loc 1 329 0
 872 006a 0134     		adds	r4, r4, #1
 873              	.LVL61:
 874              		.loc 1 330 0
 875 006c FFF7FEFF 		bl	set_rgb_led
 876              	.LVL62:
 877              		.loc 1 329 0
 878 0070 042C     		cmp	r4, #4
 879 0072 F6D1     		bne	.L76
 880 0074 DBE7     		b	.L74
 881              	.LVL63:
 882              	.L79:
 883              	.LBE55:
 884              	.LBE54:
 885              	.LBB56:
 886              	.LBB57:
 887              		.loc 1 330 0
 888 0076 0023     		movs	r3, #0
 889 0078 E0B2     		uxtb	r0, r4
 890 007a 1A46     		mov	r2, r3
 891 007c 6421     		movs	r1, #100
 892              		.loc 1 329 0
 893 007e 0134     		adds	r4, r4, #1
 894              	.LVL64:
 895              		.loc 1 330 0
 896 0080 FFF7FEFF 		bl	set_rgb_led
 897              	.LVL65:
 898              		.loc 1 329 0
 899 0084 042C     		cmp	r4, #4
 900 0086 F6D1     		bne	.L79
 901 0088 D1E7     		b	.L74
 902              	.LVL66:
 903              	.L94:
 904              	.LBE57:
 905              	.LBE56:
 906              		.loc 1 365 0
 907 008a FFF7FEFF 		bl	__stack_chk_fail
 908              	.LVL67:
 909              	.L96:
 910 008e 00BF     		.align	2
 911              	.L95:
 912 0090 00000000 		.word	.LANCHOR4
ARM GAS  C:\Users\afgou\AppData\Local\Temp\cc9te5UK.s 			page 17


 913 0094 00000000 		.word	__stack_chk_guard
 914              		.cfi_endproc
 915              	.LFE273:
 916              		.size	maze_mapping_update_rgb_leds, .-maze_mapping_update_rgb_leds
 917              		.section	.text.maze_mapping_furthest_point_reached,"ax",%progbits
 918              		.align	1
 919              		.p2align 4,,15
 920              		.global	maze_mapping_furthest_point_reached
 921              		.syntax unified
 922              		.thumb
 923              		.thumb_func
 924              		.fpu fpv4-sp-d16
 925              		.type	maze_mapping_furthest_point_reached, %function
 926              	maze_mapping_furthest_point_reached:
 927              	.LFB263:
 928              		.loc 1 98 0
 929              		.cfi_startproc
 930              		@ args = 0, pretend = 0, frame = 8
 931              		@ frame_needed = 0, uses_anonymous_args = 0
 932 0000 70B5     		push	{r4, r5, r6, lr}
 933              		.cfi_def_cfa_offset 16
 934              		.cfi_offset 4, -16
 935              		.cfi_offset 5, -12
 936              		.cfi_offset 6, -8
 937              		.cfi_offset 14, -4
 938              		.loc 1 101 0
 939 0002 0F4E     		ldr	r6, .L103
 940              		.loc 1 98 0
 941 0004 0F4D     		ldr	r5, .L103+4
 942              		.loc 1 99 0
 943 0006 104A     		ldr	r2, .L103+8
 944              		.loc 1 101 0
 945 0008 3378     		ldrb	r3, [r6]	@ zero_extendqisi2
 946              		.loc 1 98 0
 947 000a 2968     		ldr	r1, [r5]
 948 000c 82B0     		sub	sp, sp, #8
 949              		.cfi_def_cfa_offset 24
 950              		.loc 1 99 0
 951 000e 0024     		movs	r4, #0
 952              		.loc 1 98 0
 953 0010 0191     		str	r1, [sp, #4]
 954              		.loc 1 99 0
 955 0012 1470     		strb	r4, [r2]
 956              		.loc 1 101 0
 957 0014 63B1     		cbz	r3, .L98
 958              	.LBB60:
 959              	.LBB61:
 960              		.loc 1 103 0
 961 0016 0D4B     		ldr	r3, .L103+12
 962 0018 0122     		movs	r2, #1
 963 001a 1A70     		strb	r2, [r3]
 964              		.loc 1 104 0
 965 001c FFF7FEFF 		bl	maze_mapping_update_rgb_leds
 966              	.LVL68:
 967              		.loc 1 105 0
 968 0020 3470     		strb	r4, [r6]
 969 0022 2046     		mov	r0, r4
ARM GAS  C:\Users\afgou\AppData\Local\Temp\cc9te5UK.s 			page 18


 970              	.L99:
 971              	.LBE61:
 972              	.LBE60:
 973              		.loc 1 114 0
 974 0024 019A     		ldr	r2, [sp, #4]
 975 0026 2B68     		ldr	r3, [r5]
 976 0028 9A42     		cmp	r2, r3
 977 002a 07D1     		bne	.L102
 978 002c 02B0     		add	sp, sp, #8
 979              		.cfi_remember_state
 980              		.cfi_def_cfa_offset 16
 981              		@ sp needed
 982 002e 70BD     		pop	{r4, r5, r6, pc}
 983              	.L98:
 984              		.cfi_restore_state
 985              		.loc 1 110 0
 986 0030 064A     		ldr	r2, .L103+12
 987 0032 1370     		strb	r3, [r2]
 988              		.loc 1 111 0
 989 0034 FFF7FEFF 		bl	maze_mapping_update_rgb_leds
 990              	.LVL69:
 991              		.loc 1 112 0
 992 0038 0520     		movs	r0, #5
 993 003a F3E7     		b	.L99
 994              	.L102:
 995              		.loc 1 114 0
 996 003c FFF7FEFF 		bl	__stack_chk_fail
 997              	.LVL70:
 998              	.L104:
 999              		.align	2
 1000              	.L103:
 1001 0040 00000000 		.word	.LANCHOR7
 1002 0044 00000000 		.word	__stack_chk_guard
 1003 0048 00000000 		.word	.LANCHOR6
 1004 004c 00000000 		.word	.LANCHOR4
 1005              		.cfi_endproc
 1006              	.LFE263:
 1007              		.size	maze_mapping_furthest_point_reached, .-maze_mapping_furthest_point_reached
 1008              		.section	.text.maze_mapping_uturn_after_selecting_mode,"ax",%progbits
 1009              		.align	1
 1010              		.p2align 4,,15
 1011              		.global	maze_mapping_uturn_after_selecting_mode
 1012              		.syntax unified
 1013              		.thumb
 1014              		.thumb_func
 1015              		.fpu fpv4-sp-d16
 1016              		.type	maze_mapping_uturn_after_selecting_mode, %function
 1017              	maze_mapping_uturn_after_selecting_mode:
 1018              	.LFB267:
 1019              		.loc 1 255 0
 1020              		.cfi_startproc
 1021              		@ args = 0, pretend = 0, frame = 8
 1022              		@ frame_needed = 0, uses_anonymous_args = 0
 1023              	.LVL71:
 1024 0000 30B5     		push	{r4, r5, lr}
 1025              		.cfi_def_cfa_offset 12
 1026              		.cfi_offset 4, -12
ARM GAS  C:\Users\afgou\AppData\Local\Temp\cc9te5UK.s 			page 19


 1027              		.cfi_offset 5, -8
 1028              		.cfi_offset 14, -4
 1029              		.loc 1 258 0
 1030 0002 204A     		ldr	r2, .L125
 1031 0004 204B     		ldr	r3, .L125+4
 1032 0006 92F90010 		ldrsb	r1, [r2]
 1033              		.loc 1 255 0
 1034 000a 204C     		ldr	r4, .L125+8
 1035              		.loc 1 258 0
 1036 000c 5A5C     		ldrb	r2, [r3, r1]	@ zero_extendqisi2
 1037              		.loc 1 255 0
 1038 000e 2368     		ldr	r3, [r4]
 1039 0010 83B0     		sub	sp, sp, #12
 1040              		.cfi_def_cfa_offset 24
 1041              		.loc 1 258 0
 1042 0012 062A     		cmp	r2, #6
 1043              		.loc 1 255 0
 1044 0014 0193     		str	r3, [sp, #4]
 1045 0016 0346     		mov	r3, r0
 1046              		.loc 1 258 0
 1047 0018 10D0     		beq	.L120
 1048              		.loc 1 261 0
 1049 001a 052A     		cmp	r2, #5
 1050 001c 18D0     		beq	.L121
 1051              	.L108:
 1052              		.loc 1 264 0
 1053 001e 1C4A     		ldr	r2, .L125+12
 1054 0020 1078     		ldrb	r0, [r2]	@ zero_extendqisi2
 1055              	.LVL72:
 1056 0022 9842     		cmp	r0, r3
 1057 0024 0CD0     		beq	.L117
 1058              	.L124:
 1059              		.loc 1 266 0
 1060 0026 0228     		cmp	r0, #2
 1061 0028 23D0     		beq	.L109
 1062              		.loc 1 266 0 is_stmt 0 discriminator 2
 1063 002a 022B     		cmp	r3, #2
 1064 002c 24D0     		beq	.L110
 1065              		.loc 1 269 0 is_stmt 1
 1066 002e 0025     		movs	r5, #0
 1067              	.L111:
 1068              	.LVL73:
 1069              		.loc 1 271 0
 1070 0030 012B     		cmp	r3, #1
 1071 0032 14D0     		beq	.L122
 1072              	.LVL74:
 1073              	.L112:
 1074              		.loc 1 277 0
 1075 0034 1370     		strb	r3, [r2]
 1076              	.L113:
 1077              		.loc 1 279 0
 1078 0036 FFF7FEFF 		bl	maze_mapping_update_rgb_leds
 1079              	.LVL75:
 1080 003a 02E0     		b	.L107
 1081              	.LVL76:
 1082              	.L120:
 1083              		.loc 1 258 0 discriminator 1
ARM GAS  C:\Users\afgou\AppData\Local\Temp\cc9te5UK.s 			page 20


 1084 003c 0228     		cmp	r0, #2
 1085 003e EED0     		beq	.L108
 1086              	.LVL77:
 1087              	.L117:
 1088              		.loc 1 259 0
 1089 0040 0025     		movs	r5, #0
 1090              	.L107:
 1091              		.loc 1 287 0
 1092 0042 019A     		ldr	r2, [sp, #4]
 1093 0044 2368     		ldr	r3, [r4]
 1094 0046 9A42     		cmp	r2, r3
 1095 0048 2846     		mov	r0, r5
 1096 004a 18D1     		bne	.L123
 1097 004c 03B0     		add	sp, sp, #12
 1098              		.cfi_remember_state
 1099              		.cfi_def_cfa_offset 12
 1100              		@ sp needed
 1101 004e 30BD     		pop	{r4, r5, pc}
 1102              	.LVL78:
 1103              	.L121:
 1104              		.cfi_restore_state
 1105              		.loc 1 261 0 discriminator 1
 1106 0050 0228     		cmp	r0, #2
 1107 0052 F5D0     		beq	.L117
 1108              		.loc 1 264 0
 1109 0054 0E4A     		ldr	r2, .L125+12
 1110 0056 1078     		ldrb	r0, [r2]	@ zero_extendqisi2
 1111              	.LVL79:
 1112 0058 9842     		cmp	r0, r3
 1113 005a E4D1     		bne	.L124
 1114 005c F0E7     		b	.L117
 1115              	.LVL80:
 1116              	.L122:
 1117              		.loc 1 271 0 discriminator 1
 1118 005e 0D48     		ldr	r0, .L125+16
 1119 0060 90F90000 		ldrsb	r0, [r0]
 1120 0064 8842     		cmp	r0, r1
 1121 0066 E5D0     		beq	.L112
 1122              		.loc 1 274 0
 1123 0068 0B48     		ldr	r0, .L125+20
 1124              		.loc 1 273 0
 1125 006a 0321     		movs	r1, #3
 1126              		.loc 1 274 0
 1127 006c 0370     		strb	r3, [r0]
 1128              		.loc 1 273 0
 1129 006e 1170     		strb	r1, [r2]
 1130              		.loc 1 274 0
 1131 0070 E1E7     		b	.L113
 1132              	.LVL81:
 1133              	.L109:
 1134              		.loc 1 266 0 discriminator 3
 1135 0072 0A48     		ldr	r0, .L125+24
 1136 0074 0578     		ldrb	r5, [r0]	@ zero_extendqisi2
 1137 0076 DBE7     		b	.L111
 1138              	.L110:
 1139              		.loc 1 266 0 is_stmt 0
 1140 0078 0849     		ldr	r1, .L125+24
ARM GAS  C:\Users\afgou\AppData\Local\Temp\cc9te5UK.s 			page 21


 1141 007a 0D78     		ldrb	r5, [r1]	@ zero_extendqisi2
 1142 007c DAE7     		b	.L112
 1143              	.L123:
 1144              		.loc 1 287 0 is_stmt 1
 1145 007e FFF7FEFF 		bl	__stack_chk_fail
 1146              	.LVL82:
 1147              	.L126:
 1148 0082 00BF     		.align	2
 1149              	.L125:
 1150 0084 00000000 		.word	.LANCHOR8
 1151 0088 00000000 		.word	.LANCHOR5
 1152 008c 00000000 		.word	__stack_chk_guard
 1153 0090 00000000 		.word	.LANCHOR4
 1154 0094 00000000 		.word	.LANCHOR2
 1155 0098 00000000 		.word	.LANCHOR7
 1156 009c 00000000 		.word	.LANCHOR3
 1157              		.cfi_endproc
 1158              	.LFE267:
 1159              		.size	maze_mapping_uturn_after_selecting_mode, .-maze_mapping_uturn_after_selecting_mode
 1160              		.section	.text.maze_mapping_victory_dance,"ax",%progbits
 1161              		.align	1
 1162              		.p2align 4,,15
 1163              		.global	maze_mapping_victory_dance
 1164              		.syntax unified
 1165              		.thumb
 1166              		.thumb_func
 1167              		.fpu fpv4-sp-d16
 1168              		.type	maze_mapping_victory_dance, %function
 1169              	maze_mapping_victory_dance:
 1170              	.LFB274:
 1171              		.loc 1 368 0
 1172              		.cfi_startproc
 1173              		@ args = 0, pretend = 0, frame = 8
 1174              		@ frame_needed = 0, uses_anonymous_args = 0
 1175 0000 10B5     		push	{r4, lr}
 1176              		.cfi_def_cfa_offset 8
 1177              		.cfi_offset 4, -8
 1178              		.cfi_offset 14, -4
 1179 0002 1E4C     		ldr	r4, .L132
 1180 0004 82B0     		sub	sp, sp, #8
 1181              		.cfi_def_cfa_offset 16
 1182              		.loc 1 368 0
 1183 0006 2368     		ldr	r3, [r4]
 1184 0008 0193     		str	r3, [sp, #4]
 1185              		.loc 1 369 0
 1186 000a FFF7FEFF 		bl	clear_leds
 1187              	.LVL83:
 1188              		.loc 1 370 0
 1189 000e 0023     		movs	r3, #0
 1190 0010 0122     		movs	r2, #1
 1191 0012 1946     		mov	r1, r3
 1192 0014 1046     		mov	r0, r2
 1193 0016 FFF7FEFF 		bl	maze_mapping_update_red_leds
 1194              	.LVL84:
 1195              		.loc 1 371 0
 1196 001a 6FF0B300 		mvn	r0, #179
 1197 001e FFF7FEFF 		bl	turn
ARM GAS  C:\Users\afgou\AppData\Local\Temp\cc9te5UK.s 			page 22


 1198              	.LVL85:
 1199              		.loc 1 372 0
 1200 0022 0123     		movs	r3, #1
 1201 0024 0022     		movs	r2, #0
 1202 0026 1946     		mov	r1, r3
 1203 0028 1046     		mov	r0, r2
 1204 002a FFF7FEFF 		bl	maze_mapping_update_red_leds
 1205              	.LVL86:
 1206              		.loc 1 373 0
 1207 002e 6FF0B300 		mvn	r0, #179
 1208 0032 FFF7FEFF 		bl	turn
 1209              	.LVL87:
 1210              		.loc 1 374 0
 1211 0036 0023     		movs	r3, #0
 1212 0038 0122     		movs	r2, #1
 1213 003a 1946     		mov	r1, r3
 1214 003c 1046     		mov	r0, r2
 1215 003e FFF7FEFF 		bl	maze_mapping_update_red_leds
 1216              	.LVL88:
 1217              		.loc 1 375 0
 1218 0042 B420     		movs	r0, #180
 1219 0044 FFF7FEFF 		bl	turn
 1220              	.LVL89:
 1221              		.loc 1 376 0
 1222 0048 0123     		movs	r3, #1
 1223 004a 1A46     		mov	r2, r3
 1224 004c 1946     		mov	r1, r3
 1225 004e 1846     		mov	r0, r3
 1226 0050 FFF7FEFF 		bl	maze_mapping_update_red_leds
 1227              	.LVL90:
 1228              		.loc 1 377 0
 1229 0054 B420     		movs	r0, #180
 1230 0056 FFF7FEFF 		bl	turn
 1231              	.LVL91:
 1232              		.loc 1 378 0
 1233 005a 0023     		movs	r3, #0
 1234 005c 1A46     		mov	r2, r3
 1235 005e 1946     		mov	r1, r3
 1236 0060 1846     		mov	r0, r3
 1237 0062 FFF7FEFF 		bl	maze_mapping_update_red_leds
 1238              	.LVL92:
 1239              		.loc 1 379 0
 1240 0066 019A     		ldr	r2, [sp, #4]
 1241 0068 2368     		ldr	r3, [r4]
 1242 006a 9A42     		cmp	r2, r3
 1243 006c 04D1     		bne	.L131
 1244              		.loc 1 380 0
 1245 006e 02B0     		add	sp, sp, #8
 1246              		.cfi_remember_state
 1247              		.cfi_def_cfa_offset 8
 1248              		@ sp needed
 1249 0070 BDE81040 		pop	{r4, lr}
 1250              		.cfi_restore 14
 1251              		.cfi_restore 4
 1252              		.cfi_def_cfa_offset 0
 1253              		.loc 1 379 0
 1254 0074 FFF7FEBF 		b	maze_mapping_update_rgb_leds
ARM GAS  C:\Users\afgou\AppData\Local\Temp\cc9te5UK.s 			page 23


 1255              	.LVL93:
 1256              	.L131:
 1257              		.cfi_restore_state
 1258 0078 FFF7FEFF 		bl	__stack_chk_fail
 1259              	.LVL94:
 1260              	.L133:
 1261              		.align	2
 1262              	.L132:
 1263 007c 00000000 		.word	__stack_chk_guard
 1264              		.cfi_endproc
 1265              	.LFE274:
 1266              		.size	maze_mapping_victory_dance, .-maze_mapping_victory_dance
 1267              		.section	.text.maze_mapping_memorise_crossroad,"ax",%progbits
 1268              		.align	1
 1269              		.p2align 4,,15
 1270              		.global	maze_mapping_memorise_crossroad
 1271              		.syntax unified
 1272              		.thumb
 1273              		.thumb_func
 1274              		.fpu fpv4-sp-d16
 1275              		.type	maze_mapping_memorise_crossroad, %function
 1276              	maze_mapping_memorise_crossroad:
 1277              	.LFB264:
 1278              		.loc 1 117 0
 1279              		.cfi_startproc
 1280              		@ args = 0, pretend = 0, frame = 8
 1281              		@ frame_needed = 0, uses_anonymous_args = 0
 1282              	.LVL95:
 1283 0000 70B5     		push	{r4, r5, r6, lr}
 1284              		.cfi_def_cfa_offset 16
 1285              		.cfi_offset 4, -16
 1286              		.cfi_offset 5, -12
 1287              		.cfi_offset 6, -8
 1288              		.cfi_offset 14, -4
 1289              		.loc 1 118 0
 1290 0002 2449     		ldr	r1, .L148
 1291              		.loc 1 117 0
 1292 0004 244C     		ldr	r4, .L148+4
 1293              		.loc 1 118 0
 1294 0006 91F90030 		ldrsb	r3, [r1]
 1295 000a 244D     		ldr	r5, .L148+8
 1296              		.loc 1 117 0
 1297 000c 2268     		ldr	r2, [r4]
 1298              		.loc 1 118 0
 1299 000e 2B70     		strb	r3, [r5]
 1300              		.loc 1 117 0
 1301 0010 82B0     		sub	sp, sp, #8
 1302              		.cfi_def_cfa_offset 24
 1303              		.loc 1 117 0
 1304 0012 0192     		str	r2, [sp, #4]
 1305              		.loc 1 120 0
 1306 0014 2BB3     		cbz	r3, .L135
 1307              		.loc 1 122 0
 1308 0016 224D     		ldr	r5, .L148+12
 1309 0018 EA5C     		ldrb	r2, [r5, r3]	@ zero_extendqisi2
 1310 001a 062A     		cmp	r2, #6
 1311 001c 2ED0     		beq	.L136
ARM GAS  C:\Users\afgou\AppData\Local\Temp\cc9te5UK.s 			page 24


 1312              	.LBB66:
 1313              		.loc 1 126 0
 1314 001e A0B1     		cbz	r0, .L145
 1315              		.loc 1 133 0
 1316 0020 0232     		adds	r2, r2, #2
 1317 0022 D2B2     		uxtb	r2, r2
 1318              		.loc 1 137 0
 1319 0024 042A     		cmp	r2, #4
 1320              		.loc 1 133 0
 1321 0026 EA54     		strb	r2, [r5, r3]
 1322              	.LVL96:
 1323              		.loc 1 134 0
 1324 0028 4FF00206 		mov	r6, #2
 1325              	.LVL97:
 1326              		.loc 1 137 0
 1327 002c 14D0     		beq	.L139
 1328              	.L147:
 1329              		.loc 1 139 0
 1330 002e 312B     		cmp	r3, #49
 1331 0030 20DC     		bgt	.L140
 1332              		.loc 1 140 0
 1333 0032 0133     		adds	r3, r3, #1
 1334 0034 0B70     		strb	r3, [r1]
 1335              	.LVL98:
 1336              	.L141:
 1337              		.loc 1 150 0
 1338 0036 1B4B     		ldr	r3, .L148+16
 1339 0038 0122     		movs	r2, #1
 1340 003a 1A70     		strb	r2, [r3]
 1341              	.LVL99:
 1342              	.L142:
 1343              	.LBE66:
 1344              		.loc 1 168 0
 1345 003c 019A     		ldr	r2, [sp, #4]
 1346 003e 2368     		ldr	r3, [r4]
 1347 0040 9A42     		cmp	r2, r3
 1348 0042 3046     		mov	r0, r6
 1349 0044 23D1     		bne	.L146
 1350 0046 02B0     		add	sp, sp, #8
 1351              		.cfi_remember_state
 1352              		.cfi_def_cfa_offset 16
 1353              		@ sp needed
 1354 0048 70BD     		pop	{r4, r5, r6, pc}
 1355              	.LVL100:
 1356              	.L145:
 1357              		.cfi_restore_state
 1358              	.LBB67:
 1359              		.loc 1 128 0
 1360 004a 0132     		adds	r2, r2, #1
 1361 004c D2B2     		uxtb	r2, r2
 1362              		.loc 1 137 0
 1363 004e 042A     		cmp	r2, #4
 1364              		.loc 1 128 0
 1365 0050 EA54     		strb	r2, [r5, r3]
 1366              	.LVL101:
 1367              		.loc 1 129 0
 1368 0052 4FF00106 		mov	r6, #1
ARM GAS  C:\Users\afgou\AppData\Local\Temp\cc9te5UK.s 			page 25


 1369              	.LVL102:
 1370              		.loc 1 137 0
 1371 0056 EAD1     		bne	.L147
 1372              	.L139:
 1373              		.loc 1 146 0
 1374 0058 0022     		movs	r2, #0
 1375 005a EA54     		strb	r2, [r5, r3]
 1376              		.loc 1 147 0
 1377 005c 013B     		subs	r3, r3, #1
 1378 005e 0B70     		strb	r3, [r1]
 1379 0060 E9E7     		b	.L141
 1380              	.LVL103:
 1381              	.L135:
 1382              	.LBE67:
 1383              	.LBB68:
 1384              	.LBB69:
 1385              		.loc 1 163 0
 1386 0062 0F48     		ldr	r0, .L148+12
 1387              	.LVL104:
 1388              		.loc 1 165 0
 1389 0064 0F4A     		ldr	r2, .L148+16
 1390              		.loc 1 164 0
 1391 0066 0123     		movs	r3, #1
 1392              		.loc 1 163 0
 1393 0068 0525     		movs	r5, #5
 1394 006a 0570     		strb	r5, [r0]
 1395              		.loc 1 165 0
 1396 006c 1370     		strb	r3, [r2]
 1397              		.loc 1 164 0
 1398 006e 0B70     		strb	r3, [r1]
 1399              		.loc 1 165 0
 1400 0070 0226     		movs	r6, #2
 1401 0072 E3E7     		b	.L142
 1402              	.LVL105:
 1403              	.L140:
 1404              	.LBE69:
 1405              	.LBE68:
 1406              	.LBB70:
 1407              		.loc 1 142 0
 1408 0074 0C48     		ldr	r0, .L148+20
 1409              	.LVL106:
 1410 0076 FFF7FEFF 		bl	chSysHalt
 1411              	.LVL107:
 1412 007a DCE7     		b	.L141
 1413              	.LVL108:
 1414              	.L136:
 1415              	.LBE70:
 1416              		.loc 1 156 0
 1417 007c 0B4A     		ldr	r2, .L148+24
 1418              		.loc 1 155 0
 1419 007e 0133     		adds	r3, r3, #1
 1420              		.loc 1 156 0
 1421 0080 0020     		movs	r0, #0
 1422              	.LVL109:
 1423              		.loc 1 155 0
 1424 0082 0B70     		strb	r3, [r1]
 1425              		.loc 1 156 0
ARM GAS  C:\Users\afgou\AppData\Local\Temp\cc9te5UK.s 			page 26


 1426 0084 1070     		strb	r0, [r2]
 1427              		.loc 1 158 0
 1428 0086 0426     		movs	r6, #4
 1429              		.loc 1 157 0
 1430 0088 FFF7FEFF 		bl	maze_mapping_victory_dance
 1431              	.LVL110:
 1432              		.loc 1 158 0
 1433 008c D6E7     		b	.L142
 1434              	.L146:
 1435              		.loc 1 168 0
 1436 008e FFF7FEFF 		bl	__stack_chk_fail
 1437              	.LVL111:
 1438              	.L149:
 1439 0092 00BF     		.align	2
 1440              	.L148:
 1441 0094 00000000 		.word	.LANCHOR2
 1442 0098 00000000 		.word	__stack_chk_guard
 1443 009c 00000000 		.word	.LANCHOR8
 1444 00a0 00000000 		.word	.LANCHOR5
 1445 00a4 00000000 		.word	.LANCHOR9
 1446 00a8 00000000 		.word	.LC2
 1447 00ac 00000000 		.word	.LANCHOR4
 1448              		.cfi_endproc
 1449              	.LFE264:
 1450              		.size	maze_mapping_memorise_crossroad, .-maze_mapping_memorise_crossroad
 1451              		.section	.text.maze_mapping_next_step_to_goal,"ax",%progbits
 1452              		.align	1
 1453              		.p2align 4,,15
 1454              		.global	maze_mapping_next_step_to_goal
 1455              		.syntax unified
 1456              		.thumb
 1457              		.thumb_func
 1458              		.fpu fpv4-sp-d16
 1459              		.type	maze_mapping_next_step_to_goal, %function
 1460              	maze_mapping_next_step_to_goal:
 1461              	.LFB266:
 1462              		.loc 1 202 0
 1463              		.cfi_startproc
 1464              		@ args = 0, pretend = 0, frame = 8
 1465              		@ frame_needed = 0, uses_anonymous_args = 0
 1466 0000 70B5     		push	{r4, r5, r6, lr}
 1467              		.cfi_def_cfa_offset 16
 1468              		.cfi_offset 4, -16
 1469              		.cfi_offset 5, -12
 1470              		.cfi_offset 6, -8
 1471              		.cfi_offset 14, -4
 1472              		.loc 1 205 0
 1473 0002 2849     		ldr	r1, .L165
 1474              		.loc 1 202 0
 1475 0004 284D     		ldr	r5, .L165+4
 1476              		.loc 1 205 0
 1477 0006 0C78     		ldrb	r4, [r1]	@ zero_extendqisi2
 1478              		.loc 1 202 0
 1479 0008 2B68     		ldr	r3, [r5]
 1480 000a 82B0     		sub	sp, sp, #8
 1481              		.cfi_def_cfa_offset 24
 1482              		.loc 1 205 0
ARM GAS  C:\Users\afgou\AppData\Local\Temp\cc9te5UK.s 			page 27


 1483 000c 022C     		cmp	r4, #2
 1484              		.loc 1 202 0
 1485 000e 0193     		str	r3, [sp, #4]
 1486              		.loc 1 205 0
 1487 0010 1CD0     		beq	.L163
 1488              		.loc 1 225 0
 1489 0012 264B     		ldr	r3, .L165+8
 1490 0014 93F90030 		ldrsb	r3, [r3]
 1491 0018 012B     		cmp	r3, #1
 1492 001a 33DD     		ble	.L155
 1493              		.loc 1 227 0
 1494 001c 2448     		ldr	r0, .L165+12
 1495 001e 254C     		ldr	r4, .L165+16
 1496 0020 90F90020 		ldrsb	r2, [r0]
 1497 0024 A45C     		ldrb	r4, [r4, r2]	@ zero_extendqisi2
 1498 0026 062C     		cmp	r4, #6
 1499 0028 26D0     		beq	.L156
 1500              	.LVL112:
 1501              		.loc 1 231 0
 1502 002a 013B     		subs	r3, r3, #1
 1503 002c 9A42     		cmp	r2, r3
 1504 002e 1FDA     		bge	.L157
 1505              		.loc 1 232 0
 1506 0030 0132     		adds	r2, r2, #1
 1507 0032 0270     		strb	r2, [r0]
 1508              	.LVL113:
 1509              	.L154:
 1510              		.loc 1 249 0
 1511 0034 FFF7FEFF 		bl	maze_mapping_update_rgb_leds
 1512              	.LVL114:
 1513              		.loc 1 252 0
 1514 0038 019A     		ldr	r2, [sp, #4]
 1515 003a 2B68     		ldr	r3, [r5]
 1516              		.loc 1 250 0
 1517 003c 1E49     		ldr	r1, .L165+20
 1518 003e 0125     		movs	r5, #1
 1519              		.loc 1 252 0
 1520 0040 9A42     		cmp	r2, r3
 1521 0042 2046     		mov	r0, r4
 1522              		.loc 1 250 0
 1523 0044 0D70     		strb	r5, [r1]
 1524              		.loc 1 252 0
 1525 0046 2AD1     		bne	.L164
 1526 0048 02B0     		add	sp, sp, #8
 1527              		.cfi_remember_state
 1528              		.cfi_def_cfa_offset 16
 1529              		@ sp needed
 1530 004a 70BD     		pop	{r4, r5, r6, pc}
 1531              	.LVL115:
 1532              	.L163:
 1533              		.cfi_restore_state
 1534              		.loc 1 207 0
 1535 004c 184E     		ldr	r6, .L165+12
 1536 004e 96F90020 		ldrsb	r2, [r6]
 1537 0052 002A     		cmp	r2, #0
 1538 0054 D3B2     		uxtb	r3, r2
 1539 0056 1ADB     		blt	.L152
ARM GAS  C:\Users\afgou\AppData\Local\Temp\cc9te5UK.s 			page 28


 1540              		.loc 1 209 0
 1541 0058 1649     		ldr	r1, .L165+16
 1542 005a 885C     		ldrb	r0, [r1, r2]	@ zero_extendqisi2
 1543 005c 0628     		cmp	r0, #6
 1544              		.loc 1 210 0
 1545 005e 18BF     		it	ne
 1546 0060 C0F10400 		rsbne	r0, r0, #4
 1547              		.loc 1 213 0
 1548 0064 03F1FF33 		add	r3, r3, #-1
 1549              		.loc 1 210 0
 1550 0068 18BF     		it	ne
 1551 006a C4B2     		uxtbne	r4, r0
 1552              	.LVL116:
 1553              		.loc 1 213 0
 1554 006c 3370     		strb	r3, [r6]
 1555 006e E1E7     		b	.L154
 1556              	.L157:
 1557              		.loc 1 234 0
 1558 0070 124B     		ldr	r3, .L165+24
 1559 0072 0122     		movs	r2, #1
 1560 0074 1A70     		strb	r2, [r3]
 1561 0076 DDE7     		b	.L154
 1562              	.LVL117:
 1563              	.L156:
 1564              		.loc 1 239 0
 1565 0078 0023     		movs	r3, #0
 1566 007a 0B70     		strb	r3, [r1]
 1567              		.loc 1 238 0
 1568 007c 0424     		movs	r4, #4
 1569              		.loc 1 240 0
 1570 007e FFF7FEFF 		bl	maze_mapping_victory_dance
 1571              	.LVL118:
 1572 0082 D7E7     		b	.L154
 1573              	.LVL119:
 1574              	.L155:
 1575              		.loc 1 245 0
 1576 0084 0D4B     		ldr	r3, .L165+24
 1577 0086 0122     		movs	r2, #1
 1578 0088 1A70     		strb	r2, [r3]
 1579              	.LVL120:
 1580              		.loc 1 246 0
 1581 008a 0224     		movs	r4, #2
 1582 008c D2E7     		b	.L154
 1583              	.LVL121:
 1584              	.L152:
 1585              		.loc 1 217 0
 1586 008e 0133     		adds	r3, r3, #1
 1587              		.loc 1 219 0
 1588 0090 0022     		movs	r2, #0
 1589              		.loc 1 217 0
 1590 0092 3370     		strb	r3, [r6]
 1591              	.LVL122:
 1592              		.loc 1 219 0
 1593 0094 0A70     		strb	r2, [r1]
 1594              		.loc 1 218 0
 1595 0096 0424     		movs	r4, #4
 1596              		.loc 1 220 0
ARM GAS  C:\Users\afgou\AppData\Local\Temp\cc9te5UK.s 			page 29


 1597 0098 FFF7FEFF 		bl	maze_mapping_victory_dance
 1598              	.LVL123:
 1599 009c CAE7     		b	.L154
 1600              	.LVL124:
 1601              	.L164:
 1602              		.loc 1 252 0
 1603 009e FFF7FEFF 		bl	__stack_chk_fail
 1604              	.LVL125:
 1605              	.L166:
 1606 00a2 00BF     		.align	2
 1607              	.L165:
 1608 00a4 00000000 		.word	.LANCHOR4
 1609 00a8 00000000 		.word	__stack_chk_guard
 1610 00ac 00000000 		.word	.LANCHOR2
 1611 00b0 00000000 		.word	.LANCHOR8
 1612 00b4 00000000 		.word	.LANCHOR5
 1613 00b8 00000000 		.word	.LANCHOR9
 1614 00bc 00000000 		.word	.LANCHOR6
 1615              		.cfi_endproc
 1616              	.LFE266:
 1617              		.size	maze_mapping_next_step_to_goal, .-maze_mapping_next_step_to_goal
 1618              		.section	.text.maze_mapping_crossroad_gestion,"ax",%progbits
 1619              		.align	1
 1620              		.p2align 4,,15
 1621              		.global	maze_mapping_crossroad_gestion
 1622              		.syntax unified
 1623              		.thumb
 1624              		.thumb_func
 1625              		.fpu fpv4-sp-d16
 1626              		.type	maze_mapping_crossroad_gestion, %function
 1627              	maze_mapping_crossroad_gestion:
 1628              	.LFB261:
 1629              		.loc 1 63 0
 1630              		.cfi_startproc
 1631              		@ args = 0, pretend = 0, frame = 8
 1632              		@ frame_needed = 0, uses_anonymous_args = 0
 1633              	.LVL126:
 1634 0000 70B5     		push	{r4, r5, r6, lr}
 1635              		.cfi_def_cfa_offset 16
 1636              		.cfi_offset 4, -16
 1637              		.cfi_offset 5, -12
 1638              		.cfi_offset 6, -8
 1639              		.cfi_offset 14, -4
 1640              	.LBB77:
 1641              	.LBB78:
 1642              		.loc 1 299 0
 1643 0002 1D4B     		ldr	r3, .L183
 1644              	.LBE78:
 1645              	.LBE77:
 1646              		.loc 1 63 0
 1647 0004 1D4C     		ldr	r4, .L183+4
 1648              	.LBB83:
 1649              	.LBB79:
 1650              		.loc 1 299 0
 1651 0006 1D78     		ldrb	r5, [r3]	@ zero_extendqisi2
 1652              	.LBE79:
 1653              	.LBE83:
ARM GAS  C:\Users\afgou\AppData\Local\Temp\cc9te5UK.s 			page 30


 1654              		.loc 1 63 0
 1655 0008 2268     		ldr	r2, [r4]
 1656 000a 82B0     		sub	sp, sp, #8
 1657              		.cfi_def_cfa_offset 24
 1658              	.LBB84:
 1659              	.LBB80:
 1660              		.loc 1 299 0
 1661 000c 8D42     		cmp	r5, r1
 1662              	.LBE80:
 1663              	.LBE84:
 1664              		.loc 1 63 0
 1665 000e 0192     		str	r2, [sp, #4]
 1666              	.LVL127:
 1667              	.LBB85:
 1668              	.LBB81:
 1669              		.loc 1 299 0
 1670 0010 0BD0     		beq	.L181
 1671              		.loc 1 315 0
 1672 0012 1B4A     		ldr	r2, .L183+8
 1673              		.loc 1 314 0
 1674 0014 1970     		strb	r1, [r3]
 1675              		.loc 1 315 0
 1676 0016 0023     		movs	r3, #0
 1677 0018 1370     		strb	r3, [r2]
 1678              	.LVL128:
 1679              	.L170:
 1680              	.LBE81:
 1681              	.LBE85:
 1682              		.loc 1 81 0
 1683 001a 019A     		ldr	r2, [sp, #4]
 1684 001c 2368     		ldr	r3, [r4]
 1685 001e 9A42     		cmp	r2, r3
 1686 0020 4FF00000 		mov	r0, #0
 1687 0024 25D1     		bne	.L180
 1688 0026 02B0     		add	sp, sp, #8
 1689              		.cfi_remember_state
 1690              		.cfi_def_cfa_offset 16
 1691              		@ sp needed
 1692 0028 70BD     		pop	{r4, r5, r6, pc}
 1693              	.LVL129:
 1694              	.L181:
 1695              		.cfi_restore_state
 1696 002a 0646     		mov	r6, r0
 1697              	.LBB86:
 1698              	.LBB82:
 1699 002c FFF7FEFF 		bl	maze_mapping_multi_check_case.part.1
 1700              	.LVL130:
 1701              	.LBE82:
 1702              	.LBE86:
 1703              		.loc 1 64 0
 1704 0030 0028     		cmp	r0, #0
 1705 0032 F2D0     		beq	.L170
 1706              		.loc 1 66 0
 1707 0034 134B     		ldr	r3, .L183+12
 1708 0036 1B78     		ldrb	r3, [r3]	@ zero_extendqisi2
 1709 0038 002B     		cmp	r3, #0
 1710 003a EED1     		bne	.L170
ARM GAS  C:\Users\afgou\AppData\Local\Temp\cc9te5UK.s 			page 31


 1711              	.LVL131:
 1712              	.LBB87:
 1713              	.LBB88:
 1714              		.loc 1 68 0
 1715 003c C5F10402 		rsb	r2, r5, #4
 1716 0040 1149     		ldr	r1, .L183+16
 1717 0042 1248     		ldr	r0, .L183+20
 1718 0044 FFF7FEFF 		bl	chprintf.constprop.6
 1719              	.LVL132:
 1720              		.loc 1 69 0
 1721 0048 114B     		ldr	r3, .L183+24
 1722              		.loc 1 72 0
 1723 004a 019A     		ldr	r2, [sp, #4]
 1724              		.loc 1 69 0
 1725 004c 1B78     		ldrb	r3, [r3]	@ zero_extendqisi2
 1726 004e 012B     		cmp	r3, #1
 1727              		.loc 1 72 0
 1728 0050 2368     		ldr	r3, [r4]
 1729              		.loc 1 69 0
 1730 0052 06D0     		beq	.L182
 1731              		.loc 1 75 0
 1732 0054 9A42     		cmp	r2, r3
 1733 0056 0CD1     		bne	.L180
 1734              	.LBE88:
 1735              	.LBE87:
 1736              		.loc 1 81 0
 1737 0058 02B0     		add	sp, sp, #8
 1738              		.cfi_remember_state
 1739              		.cfi_def_cfa_offset 16
 1740              		@ sp needed
 1741 005a BDE87040 		pop	{r4, r5, r6, lr}
 1742              		.cfi_restore 14
 1743              		.cfi_restore 6
 1744              		.cfi_restore 5
 1745              		.cfi_restore 4
 1746              		.cfi_def_cfa_offset 0
 1747              	.LVL133:
 1748              	.LBB91:
 1749              	.LBB89:
 1750              		.loc 1 75 0
 1751 005e FFF7FEBF 		b	maze_mapping_next_step_to_goal
 1752              	.LVL134:
 1753              	.L182:
 1754              		.cfi_restore_state
 1755              		.loc 1 72 0
 1756 0062 9A42     		cmp	r2, r3
 1757 0064 05D1     		bne	.L180
 1758 0066 3046     		mov	r0, r6
 1759              	.LBE89:
 1760              	.LBE91:
 1761              		.loc 1 81 0
 1762 0068 02B0     		add	sp, sp, #8
 1763              		.cfi_remember_state
 1764              		.cfi_def_cfa_offset 16
 1765              		@ sp needed
 1766 006a BDE87040 		pop	{r4, r5, r6, lr}
 1767              		.cfi_restore 14
ARM GAS  C:\Users\afgou\AppData\Local\Temp\cc9te5UK.s 			page 32


 1768              		.cfi_restore 6
 1769              		.cfi_restore 5
 1770              		.cfi_restore 4
 1771              		.cfi_def_cfa_offset 0
 1772              	.LVL135:
 1773              	.LBB92:
 1774              	.LBB90:
 1775              		.loc 1 72 0
 1776 006e FFF7FEBF 		b	maze_mapping_memorise_crossroad
 1777              	.LVL136:
 1778              	.L180:
 1779              		.cfi_restore_state
 1780              	.LBE90:
 1781              	.LBE92:
 1782              		.loc 1 81 0
 1783 0072 FFF7FEFF 		bl	__stack_chk_fail
 1784              	.LVL137:
 1785              	.L184:
 1786 0076 00BF     		.align	2
 1787              	.L183:
 1788 0078 00000000 		.word	.LANCHOR1
 1789 007c 00000000 		.word	__stack_chk_guard
 1790 0080 00000000 		.word	.LANCHOR0
 1791 0084 00000000 		.word	.LANCHOR9
 1792 0088 00000000 		.word	.LC3
 1793 008c 00000000 		.word	SD3
 1794 0090 00000000 		.word	.LANCHOR4
 1795              		.cfi_endproc
 1796              	.LFE261:
 1797              		.size	maze_mapping_crossroad_gestion, .-maze_mapping_crossroad_gestion
 1798              		.section	.text.maze_mapping_next_move,"ax",%progbits
 1799              		.align	1
 1800              		.p2align 4,,15
 1801              		.global	maze_mapping_next_move
 1802              		.syntax unified
 1803              		.thumb
 1804              		.thumb_func
 1805              		.fpu fpv4-sp-d16
 1806              		.type	maze_mapping_next_move, %function
 1807              	maze_mapping_next_move:
 1808              	.LFB265:
 1809              		.loc 1 171 0
 1810              		.cfi_startproc
 1811              		@ args = 0, pretend = 0, frame = 8
 1812              		@ frame_needed = 0, uses_anonymous_args = 0
 1813              	.LVL138:
 1814 0000 30B5     		push	{r4, r5, lr}
 1815              		.cfi_def_cfa_offset 12
 1816              		.cfi_offset 4, -12
 1817              		.cfi_offset 5, -8
 1818              		.cfi_offset 14, -4
 1819              		.loc 1 173 0
 1820 0002 294B     		ldr	r3, .L207
 1821              		.loc 1 171 0
 1822 0004 294C     		ldr	r4, .L207+4
 1823              		.loc 1 173 0
 1824 0006 1D78     		ldrb	r5, [r3]	@ zero_extendqisi2
ARM GAS  C:\Users\afgou\AppData\Local\Temp\cc9te5UK.s 			page 33


 1825              		.loc 1 171 0
 1826 0008 2368     		ldr	r3, [r4]
 1827 000a 83B0     		sub	sp, sp, #12
 1828              		.cfi_def_cfa_offset 24
 1829              		.loc 1 171 0
 1830 000c 0193     		str	r3, [sp, #4]
 1831              		.loc 1 173 0
 1832 000e 25B3     		cbz	r5, .L199
 1833 0010 0B46     		mov	r3, r1
 1834              		.loc 1 176 0
 1835 0012 1144     		add	r1, r1, r2
 1836              	.LVL139:
 1837 0014 0144     		add	r1, r1, r0
 1838 0016 C9B2     		uxtb	r1, r1
 1839              	.LVL140:
 1840              		.loc 1 178 0
 1841 0018 0229     		cmp	r1, #2
 1842 001a 10D0     		beq	.L188
 1843 001c 0329     		cmp	r1, #3
 1844 001e 23D1     		bne	.L201
 1845              		.loc 1 182 0
 1846 0020 234B     		ldr	r3, .L207+8
 1847              		.loc 1 181 0
 1848 0022 244A     		ldr	r2, .L207+12
 1849              	.LVL141:
 1850              		.loc 1 182 0
 1851 0024 1B78     		ldrb	r3, [r3]	@ zero_extendqisi2
 1852              		.loc 1 181 0
 1853 0026 0021     		movs	r1, #0
 1854              	.LVL142:
 1855 0028 1170     		strb	r1, [r2]
 1856              		.loc 1 183 0
 1857 002a 019A     		ldr	r2, [sp, #4]
 1858              		.loc 1 182 0
 1859 002c 4BB3     		cbz	r3, .L190
 1860              	.LVL143:
 1861              	.L205:
 1862              		.loc 1 190 0
 1863 002e 2368     		ldr	r3, [r4]
 1864 0030 9A42     		cmp	r2, r3
 1865 0032 36D1     		bne	.L203
 1866              		.loc 1 199 0
 1867 0034 03B0     		add	sp, sp, #12
 1868              		.cfi_remember_state
 1869              		.cfi_def_cfa_offset 12
 1870              		@ sp needed
 1871 0036 BDE83040 		pop	{r4, r5, lr}
 1872              		.cfi_restore 14
 1873              		.cfi_restore 5
 1874              		.cfi_restore 4
 1875              		.cfi_def_cfa_offset 0
 1876              		.loc 1 190 0
 1877 003a FFF7FEBF 		b	maze_mapping_furthest_point_reached
 1878              	.LVL144:
 1879              	.L188:
 1880              		.cfi_restore_state
 1881              		.loc 1 189 0
ARM GAS  C:\Users\afgou\AppData\Local\Temp\cc9te5UK.s 			page 34


 1882 003e 1C48     		ldr	r0, .L207+8
 1883              	.LVL145:
 1884              		.loc 1 188 0
 1885 0040 1C49     		ldr	r1, .L207+12
 1886              	.LVL146:
 1887              		.loc 1 189 0
 1888 0042 0078     		ldrb	r0, [r0]	@ zero_extendqisi2
 1889              		.loc 1 188 0
 1890 0044 0025     		movs	r5, #0
 1891 0046 0D70     		strb	r5, [r1]
 1892              		.loc 1 189 0
 1893 0048 18BB     		cbnz	r0, .L206
 1894              	.LVL147:
 1895              	.LBB97:
 1896              	.LBB98:
 1897              		.loc 1 51 0
 1898 004a 23B3     		cbz	r3, .L195
 1899 004c 32B9     		cbnz	r2, .L186
 1900              	.LVL148:
 1901              	.LBB99:
 1902              	.LBB100:
 1903              		.loc 1 54 0
 1904 004e 1A49     		ldr	r1, .L207+16
 1905 0050 1A48     		ldr	r0, .L207+20
 1906 0052 FFF7FEFF 		bl	chprintf.constprop.6
 1907              	.LVL149:
 1908              		.loc 1 59 0
 1909 0056 0320     		movs	r0, #3
 1910 0058 00E0     		b	.L186
 1911              	.LVL150:
 1912              	.L199:
 1913              	.LBE100:
 1914              	.LBE99:
 1915              	.LBE98:
 1916              	.LBE97:
 1917              		.loc 1 174 0
 1918 005a 0520     		movs	r0, #5
 1919              	.LVL151:
 1920              	.L186:
 1921              		.loc 1 199 0
 1922 005c 019A     		ldr	r2, [sp, #4]
 1923 005e 2368     		ldr	r3, [r4]
 1924 0060 9A42     		cmp	r2, r3
 1925 0062 1ED1     		bne	.L203
 1926 0064 03B0     		add	sp, sp, #12
 1927              		.cfi_remember_state
 1928              		.cfi_def_cfa_offset 12
 1929              		@ sp needed
 1930 0066 30BD     		pop	{r4, r5, pc}
 1931              	.LVL152:
 1932              	.L201:
 1933              		.cfi_restore_state
 1934              		.loc 1 196 0
 1935 0068 0198     		ldr	r0, [sp, #4]
 1936              	.LVL153:
 1937 006a 2268     		ldr	r2, [r4]
 1938              	.LVL154:
ARM GAS  C:\Users\afgou\AppData\Local\Temp\cc9te5UK.s 			page 35


 1939              		.loc 1 195 0
 1940 006c 144D     		ldr	r5, .L207+24
 1941 006e 0124     		movs	r4, #1
 1942              		.loc 1 196 0
 1943 0070 9042     		cmp	r0, r2
 1944              		.loc 1 195 0
 1945 0072 2C70     		strb	r4, [r5]
 1946              		.loc 1 196 0
 1947 0074 15D1     		bne	.L203
 1948 0076 1846     		mov	r0, r3
 1949              		.loc 1 199 0
 1950 0078 03B0     		add	sp, sp, #12
 1951              		.cfi_remember_state
 1952              		.cfi_def_cfa_offset 12
 1953              		@ sp needed
 1954 007a BDE83040 		pop	{r4, r5, lr}
 1955              		.cfi_restore 14
 1956              		.cfi_restore 5
 1957              		.cfi_restore 4
 1958              		.cfi_def_cfa_offset 0
 1959              		.loc 1 196 0
 1960 007e FFF7FEBF 		b	maze_mapping_crossroad_gestion
 1961              	.LVL155:
 1962              	.L190:
 1963              		.cfi_restore_state
 1964              		.loc 1 185 0
 1965 0082 2368     		ldr	r3, [r4]
 1966 0084 9A42     		cmp	r2, r3
 1967 0086 0CD1     		bne	.L203
 1968              		.loc 1 199 0
 1969 0088 03B0     		add	sp, sp, #12
 1970              		.cfi_remember_state
 1971              		.cfi_def_cfa_offset 12
 1972              		@ sp needed
 1973 008a BDE83040 		pop	{r4, r5, lr}
 1974              		.cfi_restore 14
 1975              		.cfi_restore 5
 1976              		.cfi_restore 4
 1977              		.cfi_def_cfa_offset 0
 1978              		.loc 1 185 0
 1979 008e FFF7FEBF 		b	maze_mapping_deadend_gestion
 1980              	.LVL156:
 1981              	.L206:
 1982              		.cfi_restore_state
 1983              		.loc 1 190 0
 1984 0092 019A     		ldr	r2, [sp, #4]
 1985              	.LVL157:
 1986 0094 CBE7     		b	.L205
 1987              	.LVL158:
 1988              	.L195:
 1989              	.LBB104:
 1990              	.LBB103:
 1991              	.LBB102:
 1992              	.LBB101:
 1993              		.loc 1 54 0
 1994 0096 0849     		ldr	r1, .L207+16
 1995 0098 0848     		ldr	r0, .L207+20
ARM GAS  C:\Users\afgou\AppData\Local\Temp\cc9te5UK.s 			page 36


 1996 009a FFF7FEFF 		bl	chprintf.constprop.6
 1997              	.LVL159:
 1998              		.loc 1 57 0
 1999 009e 0120     		movs	r0, #1
 2000 00a0 DCE7     		b	.L186
 2001              	.LVL160:
 2002              	.L203:
 2003              	.LBE101:
 2004              	.LBE102:
 2005              	.LBE103:
 2006              	.LBE104:
 2007              		.loc 1 199 0
 2008 00a2 FFF7FEFF 		bl	__stack_chk_fail
 2009              	.LVL161:
 2010              	.L208:
 2011 00a6 00BF     		.align	2
 2012              	.L207:
 2013 00a8 00000000 		.word	.LANCHOR4
 2014 00ac 00000000 		.word	__stack_chk_guard
 2015 00b0 00000000 		.word	.LANCHOR6
 2016 00b4 00000000 		.word	.LANCHOR9
 2017 00b8 00000000 		.word	.LC0
 2018 00bc 00000000 		.word	SD3
 2019 00c0 00000000 		.word	.LANCHOR3
 2020              		.cfi_endproc
 2021              	.LFE265:
 2022              		.size	maze_mapping_next_move, .-maze_mapping_next_move
 2023              		.section	.bss.crossroad_already_saved,"aw",%nobits
 2024              		.set	.LANCHOR9,. + 0
 2025              		.type	crossroad_already_saved, %object
 2026              		.size	crossroad_already_saved, 1
 2027              	crossroad_already_saved:
 2028 0000 00       		.space	1
 2029              		.section	.bss.current_crossroad,"aw",%nobits
 2030              		.set	.LANCHOR2,. + 0
 2031              		.type	current_crossroad, %object
 2032              		.size	current_crossroad, 1
 2033              	current_crossroad:
 2034 0000 00       		.space	1
 2035              		.section	.bss.furthest_point_reached,"aw",%nobits
 2036              		.set	.LANCHOR6,. + 0
 2037              		.type	furthest_point_reached, %object
 2038              		.size	furthest_point_reached, 1
 2039              	furthest_point_reached:
 2040 0000 00       		.space	1
 2041              		.section	.bss.map,"aw",%nobits
 2042              		.align	2
 2043              		.set	.LANCHOR5,. + 0
 2044              		.type	map, %object
 2045              		.size	map, 50
 2046              	map:
 2047 0000 00000000 		.space	50
 2047      00000000 
 2047      00000000 
 2047      00000000 
 2047      00000000 
 2048              		.section	.bss.mode,"aw",%nobits
ARM GAS  C:\Users\afgou\AppData\Local\Temp\cc9te5UK.s 			page 37


 2049              		.set	.LANCHOR4,. + 0
 2050              		.type	mode, %object
 2051              		.size	mode, 1
 2052              	mode:
 2053 0000 00       		.space	1
 2054              		.section	.bss.multi_check,"aw",%nobits
 2055              		.set	.LANCHOR0,. + 0
 2056              		.type	multi_check, %object
 2057              		.size	multi_check, 1
 2058              	multi_check:
 2059 0000 00       		.space	1
 2060              		.section	.bss.robot_position,"aw",%nobits
 2061              		.set	.LANCHOR8,. + 0
 2062              		.type	robot_position, %object
 2063              		.size	robot_position, 1
 2064              	robot_position:
 2065 0000 00       		.space	1
 2066              		.section	.bss.switch_to_discover_mode,"aw",%nobits
 2067              		.set	.LANCHOR7,. + 0
 2068              		.type	switch_to_discover_mode, %object
 2069              		.size	switch_to_discover_mode, 1
 2070              	switch_to_discover_mode:
 2071 0000 00       		.space	1
 2072              		.section	.data.last_case,"aw",%progbits
 2073              		.set	.LANCHOR1,. + 0
 2074              		.type	last_case, %object
 2075              		.size	last_case, 1
 2076              	last_case:
 2077 0000 04       		.byte	4
 2078              		.section	.data.uturn_to_do,"aw",%progbits
 2079              		.set	.LANCHOR3,. + 0
 2080              		.type	uturn_to_do, %object
 2081              		.size	uturn_to_do, 1
 2082              	uturn_to_do:
 2083 0000 01       		.byte	1
 2084              		.section	.rodata.maze_mapping_corridor_gestion.str1.4,"aMS",%progbits,1
 2085              		.align	2
 2086              	.LC0:
 2087 0000 636F7272 		.ascii	"corridor\012\000"
 2087      69646F72 
 2087      0A00
 2088              		.section	.rodata.maze_mapping_crossroad_gestion.str1.4,"aMS",%progbits,1
 2089              		.align	2
 2090              	.LC3:
 2091 0000 63726F73 		.ascii	"crossroad_%d\012\000"
 2091      73726F61 
 2091      645F2564 
 2091      0A00
 2092              		.section	.rodata.maze_mapping_deadend_gestion.str1.4,"aMS",%progbits,1
 2093              		.align	2
 2094              	.LC1:
 2095 0000 64656164 		.ascii	"deadend\012\000"
 2095      656E640A 
 2095      00
 2096              		.section	.rodata.maze_mapping_memorise_crossroad.str1.4,"aMS",%progbits,1
 2097              		.align	2
 2098              	.LC2:
ARM GAS  C:\Users\afgou\AppData\Local\Temp\cc9te5UK.s 			page 38


 2099 0000 4C65206C 		.ascii	"Le labyrinthe est trop difficile pour le programme\000"
 2099      61627972 
 2099      696E7468 
 2099      65206573 
 2099      74207472 
 2100              		.text
 2101              	.Letext0:
 2102              		.file 3 "c:\\program files\\eclipse_e-puck2\\tools\\gcc-arm-none-eabi-7-2017-q4-major-win32\\arm-n
 2103              		.file 4 "c:\\program files\\eclipse_e-puck2\\tools\\gcc-arm-none-eabi-7-2017-q4-major-win32\\lib\\
 2104              		.file 5 "c:\\program files\\eclipse_e-puck2\\tools\\gcc-arm-none-eabi-7-2017-q4-major-win32\\lib\\
 2105              		.file 6 "c:\\program files\\eclipse_e-puck2\\tools\\gcc-arm-none-eabi-7-2017-q4-major-win32\\arm-n
 2106              		.file 7 "c:\\program files\\eclipse_e-puck2\\tools\\gcc-arm-none-eabi-7-2017-q4-major-win32\\arm-n
 2107              		.file 8 "c:\\program files\\eclipse_e-puck2\\tools\\gcc-arm-none-eabi-7-2017-q4-major-win32\\arm-n
 2108              		.file 9 "c:\\program files\\eclipse_e-puck2\\tools\\gcc-arm-none-eabi-7-2017-q4-major-win32\\arm-n
 2109              		.file 10 "<built-in>"
 2110              		.file 11 "c:\\program files\\eclipse_e-puck2\\tools\\gcc-arm-none-eabi-7-2017-q4-major-win32\\arm-
 2111              		.file 12 "c:\\program files\\eclipse_e-puck2\\tools\\gcc-arm-none-eabi-7-2017-q4-major-win32\\arm-
 2112              		.file 13 "./constantes.h"
 2113              		.file 14 "../../lib/e-puck2_main-processor/ChibiOS//os/rt/ports/ARMCMx/compilers/GCC/chtypes.h"
 2114              		.file 15 "../../lib/e-puck2_main-processor/ChibiOS//os/rt/include/chsystypes.h"
 2115              		.file 16 "../../lib/e-puck2_main-processor/ChibiOS//os/rt/include/chschd.h"
 2116              		.file 17 "../../lib/e-puck2_main-processor/ChibiOS//os/ext/CMSIS/include/core_cm4.h"
 2117              		.file 18 "../../lib/e-puck2_main-processor/ChibiOS//os/ext/CMSIS/ST/system_stm32f4xx.h"
 2118              		.file 19 "../../lib/e-puck2_main-processor/ChibiOS//os/ext/CMSIS/ST/stm32f407xx.h"
 2119              		.file 20 "../../lib/e-puck2_main-processor/ChibiOS//os/rt/ports/ARMCMx/chcore.h"
 2120              		.file 21 "../../lib/e-puck2_main-processor/ChibiOS//os/rt/ports/ARMCMx/chcore_v7m.h"
 2121              		.file 22 "../../lib/e-puck2_main-processor/ChibiOS//os/rt/include/chdebug.h"
 2122              		.file 23 "../../lib/e-puck2_main-processor/ChibiOS//os/rt/include/chtm.h"
 2123              		.file 24 "../../lib/e-puck2_main-processor/ChibiOS//os/rt/include/chstats.h"
 2124              		.file 25 "../../lib/e-puck2_main-processor/ChibiOS//os/rt/include/chsem.h"
 2125              		.file 26 "../../lib/e-puck2_main-processor/ChibiOS//os/rt/include/chmtx.h"
 2126              		.file 27 "../../lib/e-puck2_main-processor/ChibiOS//os/rt/include/chregistry.h"
 2127              		.file 28 "../../lib/e-puck2_main-processor/ChibiOS//os/rt/include/chevents.h"
 2128              		.file 29 "../../lib/e-puck2_main-processor/ChibiOS//os/rt/include/chqueues.h"
 2129              		.file 30 "../../lib/e-puck2_main-processor/ChibiOS//os/rt/include/chstreams.h"
 2130              		.file 31 "../../lib/e-puck2_main-processor/ChibiOS//os/hal/ports/STM32/STM32F4xx/stm32_dma.h"
 2131              		.file 32 "../../lib/e-puck2_main-processor/ChibiOS//os/hal/include/hal_ioblock.h"
 2132              		.file 33 "../../lib/e-puck2_main-processor/ChibiOS//os/hal/ports/STM32/LLD/GPIOv2/pal_lld.h"
 2133              		.file 34 "../../lib/e-puck2_main-processor/ChibiOS//os/hal/include/adc.h"
 2134              		.file 35 "../../lib/e-puck2_main-processor/ChibiOS//os/hal/ports/STM32/STM32F4xx/adc_lld.h"
 2135              		.file 36 "../../lib/e-puck2_main-processor/ChibiOS//os/hal/include/can.h"
 2136              		.file 37 "../../lib/e-puck2_main-processor/ChibiOS//os/hal/ports/STM32/LLD/can_lld.h"
 2137              		.file 38 "../../lib/e-puck2_main-processor/ChibiOS//os/hal/include/dac.h"
 2138              		.file 39 "../../lib/e-puck2_main-processor/ChibiOS//os/hal/ports/STM32/LLD/DACv1/dac_lld.h"
 2139              		.file 40 "../../lib/e-puck2_main-processor/ChibiOS//os/hal/include/ext.h"
 2140              		.file 41 "../../lib/e-puck2_main-processor/ChibiOS//os/hal/ports/STM32/LLD/ext_lld.h"
 2141              		.file 42 "../../lib/e-puck2_main-processor/ChibiOS//os/hal/include/gpt.h"
 2142              		.file 43 "../../lib/e-puck2_main-processor/ChibiOS//os/hal/ports/STM32/LLD/TIMv1/gpt_lld.h"
 2143              		.file 44 "../../lib/e-puck2_main-processor/ChibiOS//os/hal/ports/STM32/LLD/TIMv1/stm32_tim.h"
 2144              		.file 45 "../../lib/e-puck2_main-processor/ChibiOS//os/hal/include/i2c.h"
 2145              		.file 46 "../../lib/e-puck2_main-processor/ChibiOS//os/hal/ports/STM32/LLD/I2Cv1/i2c_lld.h"
 2146              		.file 47 "../../lib/e-puck2_main-processor/ChibiOS//os/hal/include/i2s.h"
 2147              		.file 48 "../../lib/e-puck2_main-processor/ChibiOS//os/hal/ports/STM32/LLD/SPIv1/i2s_lld.h"
 2148              		.file 49 "../../lib/e-puck2_main-processor/ChibiOS//os/hal/include/pwm.h"
 2149              		.file 50 "../../lib/e-puck2_main-processor/ChibiOS//os/hal/ports/STM32/LLD/TIMv1/pwm_lld.h"
 2150              		.file 51 "../../lib/e-puck2_main-processor/ChibiOS//os/hal/include/serial.h"
 2151              		.file 52 "../../lib/e-puck2_main-processor/ChibiOS//os/hal/ports/STM32/LLD/USARTv1/serial_lld.h"
ARM GAS  C:\Users\afgou\AppData\Local\Temp\cc9te5UK.s 			page 39


 2152              		.file 53 "../../lib/e-puck2_main-processor/ChibiOS//os/hal/include/sdc.h"
 2153              		.file 54 "../../lib/e-puck2_main-processor/ChibiOS//os/hal/ports/STM32/LLD/sdc_lld.h"
 2154              		.file 55 "../../lib/e-puck2_main-processor/ChibiOS//os/hal/include/spi.h"
 2155              		.file 56 "../../lib/e-puck2_main-processor/ChibiOS//os/hal/ports/STM32/LLD/SPIv1/spi_lld.h"
 2156              		.file 57 "../../lib/e-puck2_main-processor/ChibiOS//os/hal/include/usb.h"
 2157              		.file 58 "../../lib/e-puck2_main-processor/ChibiOS//os/hal/ports/STM32/LLD/OTGv1/usb_lld.h"
 2158              		.file 59 "../../lib/e-puck2_main-processor/ChibiOS//os/hal/ports/STM32/LLD/OTGv1/stm32_otg.h"
 2159              		.file 60 "../../lib/e-puck2_main-processor/src/leds.h"
 2160              		.file 61 "../../lib/e-puck2_main-processor/ChibiOS_ext/os/hal/include/../ports/STM32/STM32F4xx/dcm
 2161              		.file 62 "c:\\program files\\eclipse_e-puck2\\tools\\gcc-arm-none-eabi-7-2017-q4-major-win32\\arm-
 2162              		.file 63 "../../lib/e-puck2_main-processor/src/msgbus/messagebus.h"
 2163              		.file 64 "../../lib/e-puck2_main-processor/src/parameter/parameter.h"
 2164              		.file 65 "./main.h"
 2165              		.file 66 "./Mouvements.h"
 2166              		.file 67 "../../lib/e-puck2_main-processor/ChibiOS//os/rt/include/chsys.h"