ARM GAS  C:\Users\SALMAC~1\AppData\Local\Temp\ccjY66kc.s 			page 1


   1              		.cpu cortex-m4
   2              		.eabi_attribute 27, 1
   3              		.eabi_attribute 28, 1
   4              		.eabi_attribute 20, 1
   5              		.eabi_attribute 21, 1
   6              		.eabi_attribute 23, 3
   7              		.eabi_attribute 24, 1
   8              		.eabi_attribute 25, 1
   9              		.eabi_attribute 26, 1
  10              		.eabi_attribute 30, 2
  11              		.eabi_attribute 34, 1
  12              		.eabi_attribute 18, 4
  13              		.file	"Mouvements.c"
  14              		.text
  15              	.Ltext0:
  16              		.cfi_sections	.debug_frame
  17              		.section	.text.go_slow,"ax",%progbits
  18              		.align	1
  19              		.p2align 4,,15
  20              		.global	go_slow
  21              		.syntax unified
  22              		.thumb
  23              		.thumb_func
  24              		.fpu fpv4-sp-d16
  25              		.type	go_slow, %function
  26              	go_slow:
  27              	.LFB260:
  28              		.file 1 "Mouvements.c"
  29              		.loc 1 57 0
  30              		.cfi_startproc
  31              		@ args = 0, pretend = 0, frame = 8
  32              		@ frame_needed = 0, uses_anonymous_args = 0
  33 0000 30B5     		push	{r4, r5, lr}
  34              		.cfi_def_cfa_offset 12
  35              		.cfi_offset 4, -12
  36              		.cfi_offset 5, -8
  37              		.cfi_offset 14, -4
  38 0002 0C4D     		ldr	r5, .L7
  39              	.LBB8:
  40              	.LBB9:
  41              		.loc 1 67 0
  42 0004 0C4A     		ldr	r2, .L7+4
  43              		.loc 1 68 0
  44 0006 0D4B     		ldr	r3, .L7+8
  45              	.LBE9:
  46              	.LBE8:
  47              		.loc 1 57 0
  48 0008 2968     		ldr	r1, [r5]
  49 000a 83B0     		sub	sp, sp, #12
  50              		.cfi_def_cfa_offset 24
  51              	.LBB13:
  52              	.LBB10:
  53              		.loc 1 67 0
  54 000c C824     		movs	r4, #200
  55              		.loc 1 69 0
  56 000e 2046     		mov	r0, r4
  57              		.loc 1 67 0
ARM GAS  C:\Users\SALMAC~1\AppData\Local\Temp\ccjY66kc.s 			page 2


  58 0010 1460     		str	r4, [r2]
  59              		.loc 1 68 0
  60 0012 1C60     		str	r4, [r3]
  61              	.LBE10:
  62              	.LBE13:
  63              		.loc 1 57 0
  64 0014 0191     		str	r1, [sp, #4]
  65              	.LVL0:
  66              	.LBB14:
  67              	.LBB11:
  68              		.loc 1 69 0
  69 0016 FFF7FEFF 		bl	right_motor_set_speed
  70              	.LVL1:
  71              		.loc 1 70 0
  72 001a 019A     		ldr	r2, [sp, #4]
  73 001c 2B68     		ldr	r3, [r5]
  74 001e 9A42     		cmp	r2, r3
  75 0020 05D1     		bne	.L6
  76 0022 2046     		mov	r0, r4
  77              	.LBE11:
  78              	.LBE14:
  79              		.loc 1 59 0
  80 0024 03B0     		add	sp, sp, #12
  81              		.cfi_remember_state
  82              		.cfi_def_cfa_offset 12
  83              		@ sp needed
  84 0026 BDE83040 		pop	{r4, r5, lr}
  85              		.cfi_restore 14
  86              		.cfi_restore 5
  87              		.cfi_restore 4
  88              		.cfi_def_cfa_offset 0
  89              	.LBB15:
  90              	.LBB12:
  91              		.loc 1 70 0
  92 002a FFF7FEBF 		b	left_motor_set_speed
  93              	.LVL2:
  94              	.L6:
  95              		.cfi_restore_state
  96 002e FFF7FEFF 		bl	__stack_chk_fail
  97              	.LVL3:
  98              	.L8:
  99 0032 00BF     		.align	2
 100              	.L7:
 101 0034 00000000 		.word	__stack_chk_guard
 102 0038 00000000 		.word	.LANCHOR0
 103 003c 00000000 		.word	.LANCHOR1
 104              	.LBE12:
 105              	.LBE15:
 106              		.cfi_endproc
 107              	.LFE260:
 108              		.size	go_slow, .-go_slow
 109              		.section	.text.go_fast,"ax",%progbits
 110              		.align	1
 111              		.p2align 4,,15
 112              		.global	go_fast
 113              		.syntax unified
 114              		.thumb
ARM GAS  C:\Users\SALMAC~1\AppData\Local\Temp\ccjY66kc.s 			page 3


 115              		.thumb_func
 116              		.fpu fpv4-sp-d16
 117              		.type	go_fast, %function
 118              	go_fast:
 119              	.LFB261:
 120              		.loc 1 62 0
 121              		.cfi_startproc
 122              		@ args = 0, pretend = 0, frame = 8
 123              		@ frame_needed = 0, uses_anonymous_args = 0
 124 0000 30B5     		push	{r4, r5, lr}
 125              		.cfi_def_cfa_offset 12
 126              		.cfi_offset 4, -12
 127              		.cfi_offset 5, -8
 128              		.cfi_offset 14, -4
 129 0002 0C4D     		ldr	r5, .L14
 130              	.LBB16:
 131              	.LBB17:
 132              		.loc 1 67 0
 133 0004 0C4A     		ldr	r2, .L14+4
 134              		.loc 1 68 0
 135 0006 0D4B     		ldr	r3, .L14+8
 136              	.LBE17:
 137              	.LBE16:
 138              		.loc 1 62 0
 139 0008 2968     		ldr	r1, [r5]
 140 000a 83B0     		sub	sp, sp, #12
 141              		.cfi_def_cfa_offset 24
 142              	.LBB21:
 143              	.LBB18:
 144              		.loc 1 67 0
 145 000c 4FF4AF74 		mov	r4, #350
 146              		.loc 1 69 0
 147 0010 2046     		mov	r0, r4
 148              		.loc 1 67 0
 149 0012 1460     		str	r4, [r2]
 150              		.loc 1 68 0
 151 0014 1C60     		str	r4, [r3]
 152              	.LBE18:
 153              	.LBE21:
 154              		.loc 1 62 0
 155 0016 0191     		str	r1, [sp, #4]
 156              	.LVL4:
 157              	.LBB22:
 158              	.LBB19:
 159              		.loc 1 69 0
 160 0018 FFF7FEFF 		bl	right_motor_set_speed
 161              	.LVL5:
 162              		.loc 1 70 0
 163 001c 019A     		ldr	r2, [sp, #4]
 164 001e 2B68     		ldr	r3, [r5]
 165 0020 9A42     		cmp	r2, r3
 166 0022 05D1     		bne	.L13
 167 0024 2046     		mov	r0, r4
 168              	.LBE19:
 169              	.LBE22:
 170              		.loc 1 64 0
 171 0026 03B0     		add	sp, sp, #12
ARM GAS  C:\Users\SALMAC~1\AppData\Local\Temp\ccjY66kc.s 			page 4


 172              		.cfi_remember_state
 173              		.cfi_def_cfa_offset 12
 174              		@ sp needed
 175 0028 BDE83040 		pop	{r4, r5, lr}
 176              		.cfi_restore 14
 177              		.cfi_restore 5
 178              		.cfi_restore 4
 179              		.cfi_def_cfa_offset 0
 180              	.LBB23:
 181              	.LBB20:
 182              		.loc 1 70 0
 183 002c FFF7FEBF 		b	left_motor_set_speed
 184              	.LVL6:
 185              	.L13:
 186              		.cfi_restore_state
 187 0030 FFF7FEFF 		bl	__stack_chk_fail
 188              	.LVL7:
 189              	.L15:
 190              		.align	2
 191              	.L14:
 192 0034 00000000 		.word	__stack_chk_guard
 193 0038 00000000 		.word	.LANCHOR0
 194 003c 00000000 		.word	.LANCHOR1
 195              	.LBE20:
 196              	.LBE23:
 197              		.cfi_endproc
 198              	.LFE261:
 199              		.size	go_fast, .-go_fast
 200              		.section	.text.set_speed,"ax",%progbits
 201              		.align	1
 202              		.p2align 4,,15
 203              		.global	set_speed
 204              		.syntax unified
 205              		.thumb
 206              		.thumb_func
 207              		.fpu fpv4-sp-d16
 208              		.type	set_speed, %function
 209              	set_speed:
 210              	.LFB262:
 211              		.loc 1 66 0
 212              		.cfi_startproc
 213              		@ args = 0, pretend = 0, frame = 8
 214              		@ frame_needed = 0, uses_anonymous_args = 0
 215              	.LVL8:
 216 0000 30B5     		push	{r4, r5, lr}
 217              		.cfi_def_cfa_offset 12
 218              		.cfi_offset 4, -12
 219              		.cfi_offset 5, -8
 220              		.cfi_offset 14, -4
 221 0002 0B4C     		ldr	r4, .L21
 222              		.loc 1 68 0
 223 0004 0B4A     		ldr	r2, .L21+4
 224              		.loc 1 67 0
 225 0006 0C4B     		ldr	r3, .L21+8
 226              		.loc 1 66 0
 227 0008 2568     		ldr	r5, [r4]
 228              		.loc 1 68 0
ARM GAS  C:\Users\SALMAC~1\AppData\Local\Temp\ccjY66kc.s 			page 5


 229 000a 1160     		str	r1, [r2]
 230              		.loc 1 66 0
 231 000c 83B0     		sub	sp, sp, #12
 232              		.cfi_def_cfa_offset 24
 233              		.loc 1 67 0
 234 000e 1860     		str	r0, [r3]
 235              		.loc 1 66 0
 236 0010 0195     		str	r5, [sp, #4]
 237 0012 0D46     		mov	r5, r1
 238              		.loc 1 69 0
 239 0014 FFF7FEFF 		bl	right_motor_set_speed
 240              	.LVL9:
 241              		.loc 1 70 0
 242 0018 019A     		ldr	r2, [sp, #4]
 243 001a 2368     		ldr	r3, [r4]
 244 001c 9A42     		cmp	r2, r3
 245 001e 05D1     		bne	.L20
 246 0020 2846     		mov	r0, r5
 247              		.loc 1 71 0
 248 0022 03B0     		add	sp, sp, #12
 249              		.cfi_remember_state
 250              		.cfi_def_cfa_offset 12
 251              		@ sp needed
 252 0024 BDE83040 		pop	{r4, r5, lr}
 253              		.cfi_restore 14
 254              		.cfi_restore 5
 255              		.cfi_restore 4
 256              		.cfi_def_cfa_offset 0
 257              	.LVL10:
 258              		.loc 1 70 0
 259 0028 FFF7FEBF 		b	left_motor_set_speed
 260              	.LVL11:
 261              	.L20:
 262              		.cfi_restore_state
 263 002c FFF7FEFF 		bl	__stack_chk_fail
 264              	.LVL12:
 265              	.L22:
 266              		.align	2
 267              	.L21:
 268 0030 00000000 		.word	__stack_chk_guard
 269 0034 00000000 		.word	.LANCHOR1
 270 0038 00000000 		.word	.LANCHOR0
 271              		.cfi_endproc
 272              	.LFE262:
 273              		.size	set_speed, .-set_speed
 274              		.section	.text.stop,"ax",%progbits
 275              		.align	1
 276              		.p2align 4,,15
 277              		.global	stop
 278              		.syntax unified
 279              		.thumb
 280              		.thumb_func
 281              		.fpu fpv4-sp-d16
 282              		.type	stop, %function
 283              	stop:
 284              	.LFB263:
 285              		.loc 1 73 0
ARM GAS  C:\Users\SALMAC~1\AppData\Local\Temp\ccjY66kc.s 			page 6


 286              		.cfi_startproc
 287              		@ args = 0, pretend = 0, frame = 8
 288              		@ frame_needed = 0, uses_anonymous_args = 0
 289 0000 30B5     		push	{r4, r5, lr}
 290              		.cfi_def_cfa_offset 12
 291              		.cfi_offset 4, -12
 292              		.cfi_offset 5, -8
 293              		.cfi_offset 14, -4
 294 0002 0C4D     		ldr	r5, .L28
 295              	.LBB24:
 296              	.LBB25:
 297              		.loc 1 67 0
 298 0004 0C4A     		ldr	r2, .L28+4
 299              		.loc 1 68 0
 300 0006 0D4B     		ldr	r3, .L28+8
 301              	.LBE25:
 302              	.LBE24:
 303              		.loc 1 73 0
 304 0008 2968     		ldr	r1, [r5]
 305 000a 83B0     		sub	sp, sp, #12
 306              		.cfi_def_cfa_offset 24
 307              	.LBB29:
 308              	.LBB26:
 309              		.loc 1 67 0
 310 000c 0024     		movs	r4, #0
 311              		.loc 1 69 0
 312 000e 2046     		mov	r0, r4
 313              		.loc 1 67 0
 314 0010 1460     		str	r4, [r2]
 315              		.loc 1 68 0
 316 0012 1C60     		str	r4, [r3]
 317              	.LBE26:
 318              	.LBE29:
 319              		.loc 1 73 0
 320 0014 0191     		str	r1, [sp, #4]
 321              	.LVL13:
 322              	.LBB30:
 323              	.LBB27:
 324              		.loc 1 69 0
 325 0016 FFF7FEFF 		bl	right_motor_set_speed
 326              	.LVL14:
 327              		.loc 1 70 0
 328 001a 019A     		ldr	r2, [sp, #4]
 329 001c 2B68     		ldr	r3, [r5]
 330 001e 9A42     		cmp	r2, r3
 331 0020 05D1     		bne	.L27
 332 0022 2046     		mov	r0, r4
 333              	.LBE27:
 334              	.LBE30:
 335              		.loc 1 75 0
 336 0024 03B0     		add	sp, sp, #12
 337              		.cfi_remember_state
 338              		.cfi_def_cfa_offset 12
 339              		@ sp needed
 340 0026 BDE83040 		pop	{r4, r5, lr}
 341              		.cfi_restore 14
 342              		.cfi_restore 5
ARM GAS  C:\Users\SALMAC~1\AppData\Local\Temp\ccjY66kc.s 			page 7


 343              		.cfi_restore 4
 344              		.cfi_def_cfa_offset 0
 345              	.LBB31:
 346              	.LBB28:
 347              		.loc 1 70 0
 348 002a FFF7FEBF 		b	left_motor_set_speed
 349              	.LVL15:
 350              	.L27:
 351              		.cfi_restore_state
 352 002e FFF7FEFF 		bl	__stack_chk_fail
 353              	.LVL16:
 354              	.L29:
 355 0032 00BF     		.align	2
 356              	.L28:
 357 0034 00000000 		.word	__stack_chk_guard
 358 0038 00000000 		.word	.LANCHOR0
 359 003c 00000000 		.word	.LANCHOR1
 360              	.LBE28:
 361              	.LBE31:
 362              		.cfi_endproc
 363              	.LFE263:
 364              		.size	stop, .-stop
 365              		.section	.text.turn,"ax",%progbits
 366              		.align	1
 367              		.p2align 4,,15
 368              		.global	turn
 369              		.syntax unified
 370              		.thumb
 371              		.thumb_func
 372              		.fpu fpv4-sp-d16
 373              		.type	turn, %function
 374              	turn:
 375              	.LFB259:
 376              		.loc 1 35 0
 377              		.cfi_startproc
 378              		@ args = 0, pretend = 0, frame = 8
 379              		@ frame_needed = 0, uses_anonymous_args = 0
 380              	.LVL17:
 381              		.loc 1 37 0
 382 0000 07EE900A 		vmov	s15, r0	@ int
 383 0004 B8EEE77A 		vcvt.f32.s32	s14, s15
 384 0008 DFED1D7A 		vldr.32	s15, .L41
 385 000c DFED1D6A 		vldr.32	s13, .L41+4
 386 0010 27EE277A 		vmul.f32	s14, s14, s15
 387              		.loc 1 35 0
 388 0014 30B5     		push	{r4, r5, lr}
 389              		.cfi_def_cfa_offset 12
 390              		.cfi_offset 4, -12
 391              		.cfi_offset 5, -8
 392              		.cfi_offset 14, -4
 393              		.loc 1 37 0
 394 0016 C7EE267A 		vdiv.f32	s15, s14, s13
 395              		.loc 1 35 0
 396 001a 1B4D     		ldr	r5, .L41+8
 397 001c 83B0     		sub	sp, sp, #12
 398              		.cfi_def_cfa_offset 24
 399              		.loc 1 35 0
ARM GAS  C:\Users\SALMAC~1\AppData\Local\Temp\ccjY66kc.s 			page 8


 400 001e 2B68     		ldr	r3, [r5]
 401 0020 0193     		str	r3, [sp, #4]
 402              		.loc 1 39 0
 403 0022 0028     		cmp	r0, #0
 404              		.loc 1 41 0
 405 0024 4FF00000 		mov	r0, #0
 406              	.LVL18:
 407              		.loc 1 37 0
 408 0028 FDEEE77A 		vcvt.s32.f32	s15, s15
 409 002c 17EE904A 		vmov	r4, s15	@ int
 410              	.LVL19:
 411              		.loc 1 39 0
 412 0030 15DB     		blt	.L31
 413              		.loc 1 41 0
 414 0032 FFF7FEFF 		bl	right_motor_set_pos
 415              	.LVL20:
 416              		.loc 1 42 0
 417 0036 4FF4AF70 		mov	r0, #350
 418 003a FFF7FEFF 		bl	right_motor_set_speed
 419              	.LVL21:
 420              		.loc 1 43 0
 421 003e 1348     		ldr	r0, .L41+12
 422 0040 FFF7FEFF 		bl	left_motor_set_speed
 423              	.LVL22:
 424              	.L32:
 425              		.loc 1 44 0 discriminator 1
 426 0044 FFF7FEFF 		bl	right_motor_get_pos
 427              	.LVL23:
 428 0048 A042     		cmp	r0, r4
 429 004a FBDB     		blt	.L32
 430              	.LVL24:
 431              	.L33:
 432              		.loc 1 53 0
 433 004c 019A     		ldr	r2, [sp, #4]
 434 004e 2B68     		ldr	r3, [r5]
 435 0050 9A42     		cmp	r2, r3
 436 0052 13D1     		bne	.L40
 437              		.loc 1 54 0
 438 0054 03B0     		add	sp, sp, #12
 439              		.cfi_remember_state
 440              		.cfi_def_cfa_offset 12
 441              		@ sp needed
 442 0056 BDE83040 		pop	{r4, r5, lr}
 443              		.cfi_restore 14
 444              		.cfi_restore 5
 445              		.cfi_restore 4
 446              		.cfi_def_cfa_offset 0
 447              		.loc 1 53 0
 448 005a FFF7FEBF 		b	stop
 449              	.LVL25:
 450              	.L31:
 451              		.cfi_restore_state
 452              		.loc 1 48 0
 453 005e FFF7FEFF 		bl	left_motor_set_pos
 454              	.LVL26:
 455              		.loc 1 49 0
 456 0062 0A48     		ldr	r0, .L41+12
ARM GAS  C:\Users\SALMAC~1\AppData\Local\Temp\ccjY66kc.s 			page 9


 457 0064 FFF7FEFF 		bl	right_motor_set_speed
 458              	.LVL27:
 459              		.loc 1 50 0
 460 0068 4FF4AF70 		mov	r0, #350
 461 006c FFF7FEFF 		bl	left_motor_set_speed
 462              	.LVL28:
 463 0070 6442     		negs	r4, r4
 464              	.LVL29:
 465              	.L34:
 466              		.loc 1 51 0 discriminator 1
 467 0072 FFF7FEFF 		bl	left_motor_get_pos
 468              	.LVL30:
 469 0076 A042     		cmp	r0, r4
 470 0078 FBDB     		blt	.L34
 471 007a E7E7     		b	.L33
 472              	.LVL31:
 473              	.L40:
 474              		.loc 1 53 0
 475 007c FFF7FEFF 		bl	__stack_chk_fail
 476              	.LVL32:
 477              	.L42:
 478              		.align	2
 479              	.L41:
 480 0080 5324A644 		.word	1151738963
 481 0084 0000B443 		.word	1135869952
 482 0088 00000000 		.word	__stack_chk_guard
 483 008c A2FEFFFF 		.word	-350
 484              		.cfi_endproc
 485              	.LFE259:
 486              		.size	turn, .-turn
 487              		.section	.text.go_for_distance,"ax",%progbits
 488              		.align	1
 489              		.p2align 4,,15
 490              		.global	go_for_distance
 491              		.syntax unified
 492              		.thumb
 493              		.thumb_func
 494              		.fpu fpv4-sp-d16
 495              		.type	go_for_distance, %function
 496              	go_for_distance:
 497              	.LFB264:
 498              		.loc 1 77 0
 499              		.cfi_startproc
 500              		@ args = 0, pretend = 0, frame = 8
 501              		@ frame_needed = 0, uses_anonymous_args = 0
 502              	.LVL33:
 503              		.loc 1 79 0
 504 0000 4FF47A73 		mov	r3, #1000
 505 0004 03FB00F3 		mul	r3, r3, r0
 506 0008 07EE903A 		vmov	s15, r3	@ int
 507 000c DFED1C6A 		vldr.32	s13, .L54
 508 0010 B8EEE77A 		vcvt.f32.s32	s14, s15
 509              		.loc 1 77 0
 510 0014 30B5     		push	{r4, r5, lr}
 511              		.cfi_def_cfa_offset 12
 512              		.cfi_offset 4, -12
 513              		.cfi_offset 5, -8
ARM GAS  C:\Users\SALMAC~1\AppData\Local\Temp\ccjY66kc.s 			page 10


 514              		.cfi_offset 14, -4
 515              		.loc 1 79 0
 516 0016 C7EE267A 		vdiv.f32	s15, s14, s13
 517              		.loc 1 77 0
 518 001a 1A4D     		ldr	r5, .L54+4
 519 001c 83B0     		sub	sp, sp, #12
 520              		.cfi_def_cfa_offset 24
 521              		.loc 1 77 0
 522 001e 2B68     		ldr	r3, [r5]
 523 0020 0193     		str	r3, [sp, #4]
 524              		.loc 1 80 0
 525 0022 0028     		cmp	r0, #0
 526              		.loc 1 82 0
 527 0024 4FF00000 		mov	r0, #0
 528              	.LVL34:
 529              		.loc 1 79 0
 530 0028 FDEEE77A 		vcvt.s32.f32	s15, s15
 531 002c 17EE904A 		vmov	r4, s15	@ int
 532              	.LVL35:
 533              		.loc 1 80 0
 534 0030 16DB     		blt	.L44
 535              		.loc 1 82 0
 536 0032 FFF7FEFF 		bl	right_motor_set_pos
 537              	.LVL36:
 538              		.loc 1 83 0
 539 0036 4FF4AF70 		mov	r0, #350
 540 003a FFF7FEFF 		bl	right_motor_set_speed
 541              	.LVL37:
 542              		.loc 1 84 0
 543 003e 4FF4AF70 		mov	r0, #350
 544 0042 FFF7FEFF 		bl	left_motor_set_speed
 545              	.LVL38:
 546              	.L45:
 547              		.loc 1 85 0 discriminator 1
 548 0046 FFF7FEFF 		bl	right_motor_get_pos
 549              	.LVL39:
 550 004a A042     		cmp	r0, r4
 551 004c FBDB     		blt	.L45
 552              	.LVL40:
 553              	.L46:
 554              		.loc 1 94 0
 555 004e 019A     		ldr	r2, [sp, #4]
 556 0050 2B68     		ldr	r3, [r5]
 557 0052 9A42     		cmp	r2, r3
 558 0054 12D1     		bne	.L53
 559              		.loc 1 95 0
 560 0056 03B0     		add	sp, sp, #12
 561              		.cfi_remember_state
 562              		.cfi_def_cfa_offset 12
 563              		@ sp needed
 564 0058 BDE83040 		pop	{r4, r5, lr}
 565              		.cfi_restore 14
 566              		.cfi_restore 5
 567              		.cfi_restore 4
 568              		.cfi_def_cfa_offset 0
 569              		.loc 1 94 0
 570 005c FFF7FEBF 		b	stop
ARM GAS  C:\Users\SALMAC~1\AppData\Local\Temp\ccjY66kc.s 			page 11


 571              	.LVL41:
 572              	.L44:
 573              		.cfi_restore_state
 574              		.loc 1 89 0
 575 0060 FFF7FEFF 		bl	left_motor_set_pos
 576              	.LVL42:
 577              		.loc 1 90 0
 578 0064 0848     		ldr	r0, .L54+8
 579 0066 FFF7FEFF 		bl	right_motor_set_speed
 580              	.LVL43:
 581              		.loc 1 91 0
 582 006a 0748     		ldr	r0, .L54+8
 583 006c FFF7FEFF 		bl	left_motor_set_speed
 584              	.LVL44:
 585 0070 6442     		negs	r4, r4
 586              	.LVL45:
 587              	.L47:
 588              		.loc 1 92 0 discriminator 1
 589 0072 FFF7FEFF 		bl	left_motor_get_pos
 590              	.LVL46:
 591 0076 A042     		cmp	r0, r4
 592 0078 FBDB     		blt	.L47
 593 007a E8E7     		b	.L46
 594              	.LVL47:
 595              	.L53:
 596              		.loc 1 94 0
 597 007c FFF7FEFF 		bl	__stack_chk_fail
 598              	.LVL48:
 599              	.L55:
 600              		.align	2
 601              	.L54:
 602 0080 00000243 		.word	1124204544
 603 0084 00000000 		.word	__stack_chk_guard
 604 0088 A2FEFFFF 		.word	-350
 605              		.cfi_endproc
 606              	.LFE264:
 607              		.size	go_for_distance, .-go_for_distance
 608              		.section	.text.get_right_speed,"ax",%progbits
 609              		.align	1
 610              		.p2align 4,,15
 611              		.global	get_right_speed
 612              		.syntax unified
 613              		.thumb
 614              		.thumb_func
 615              		.fpu fpv4-sp-d16
 616              		.type	get_right_speed, %function
 617              	get_right_speed:
 618              	.LFB265:
 619              		.loc 1 98 0
 620              		.cfi_startproc
 621              		@ args = 0, pretend = 0, frame = 8
 622              		@ frame_needed = 0, uses_anonymous_args = 0
 623 0000 00B5     		push	{lr}
 624              		.cfi_def_cfa_offset 4
 625              		.cfi_offset 14, -4
 626 0002 074B     		ldr	r3, .L60
 627              		.loc 1 99 0
ARM GAS  C:\Users\SALMAC~1\AppData\Local\Temp\ccjY66kc.s 			page 12


 628 0004 0749     		ldr	r1, .L60+4
 629              		.loc 1 98 0
 630 0006 1A68     		ldr	r2, [r3]
 631              		.loc 1 100 0
 632 0008 0868     		ldr	r0, [r1]
 633              		.loc 1 98 0
 634 000a 83B0     		sub	sp, sp, #12
 635              		.cfi_def_cfa_offset 16
 636              		.loc 1 98 0
 637 000c 0192     		str	r2, [sp, #4]
 638              		.loc 1 100 0
 639 000e 019A     		ldr	r2, [sp, #4]
 640 0010 1B68     		ldr	r3, [r3]
 641 0012 9A42     		cmp	r2, r3
 642 0014 02D1     		bne	.L59
 643 0016 03B0     		add	sp, sp, #12
 644              		.cfi_remember_state
 645              		.cfi_def_cfa_offset 4
 646              		@ sp needed
 647 0018 5DF804FB 		ldr	pc, [sp], #4
 648              	.L59:
 649              		.cfi_restore_state
 650 001c FFF7FEFF 		bl	__stack_chk_fail
 651              	.LVL49:
 652              	.L61:
 653              		.align	2
 654              	.L60:
 655 0020 00000000 		.word	__stack_chk_guard
 656 0024 00000000 		.word	.LANCHOR0
 657              		.cfi_endproc
 658              	.LFE265:
 659              		.size	get_right_speed, .-get_right_speed
 660              		.section	.text.get_left_speed,"ax",%progbits
 661              		.align	1
 662              		.p2align 4,,15
 663              		.global	get_left_speed
 664              		.syntax unified
 665              		.thumb
 666              		.thumb_func
 667              		.fpu fpv4-sp-d16
 668              		.type	get_left_speed, %function
 669              	get_left_speed:
 670              	.LFB266:
 671              		.loc 1 103 0
 672              		.cfi_startproc
 673              		@ args = 0, pretend = 0, frame = 8
 674              		@ frame_needed = 0, uses_anonymous_args = 0
 675 0000 00B5     		push	{lr}
 676              		.cfi_def_cfa_offset 4
 677              		.cfi_offset 14, -4
 678 0002 074B     		ldr	r3, .L66
 679              		.loc 1 104 0
 680 0004 0749     		ldr	r1, .L66+4
 681              		.loc 1 103 0
 682 0006 1A68     		ldr	r2, [r3]
 683              		.loc 1 105 0
 684 0008 0868     		ldr	r0, [r1]
ARM GAS  C:\Users\SALMAC~1\AppData\Local\Temp\ccjY66kc.s 			page 13


 685              		.loc 1 103 0
 686 000a 83B0     		sub	sp, sp, #12
 687              		.cfi_def_cfa_offset 16
 688              		.loc 1 103 0
 689 000c 0192     		str	r2, [sp, #4]
 690              		.loc 1 105 0
 691 000e 019A     		ldr	r2, [sp, #4]
 692 0010 1B68     		ldr	r3, [r3]
 693 0012 9A42     		cmp	r2, r3
 694 0014 02D1     		bne	.L65
 695 0016 03B0     		add	sp, sp, #12
 696              		.cfi_remember_state
 697              		.cfi_def_cfa_offset 4
 698              		@ sp needed
 699 0018 5DF804FB 		ldr	pc, [sp], #4
 700              	.L65:
 701              		.cfi_restore_state
 702 001c FFF7FEFF 		bl	__stack_chk_fail
 703              	.LVL50:
 704              	.L67:
 705              		.align	2
 706              	.L66:
 707 0020 00000000 		.word	__stack_chk_guard
 708 0024 00000000 		.word	.LANCHOR1
 709              		.cfi_endproc
 710              	.LFE266:
 711              		.size	get_left_speed, .-get_left_speed
 712              		.section	.bss.left_motor_current_speed,"aw",%nobits
 713              		.align	2
 714              		.set	.LANCHOR1,. + 0
 715              		.type	left_motor_current_speed, %object
 716              		.size	left_motor_current_speed, 4
 717              	left_motor_current_speed:
 718 0000 00000000 		.space	4
 719              		.section	.bss.right_motor_current_speed,"aw",%nobits
 720              		.align	2
 721              		.set	.LANCHOR0,. + 0
 722              		.type	right_motor_current_speed, %object
 723              		.size	right_motor_current_speed, 4
 724              	right_motor_current_speed:
 725 0000 00000000 		.space	4
 726              		.text
 727              	.Letext0:
 728              		.file 2 "c:\\users\\salma chatagny\\documents\\epfl\\ba6\\microinformatique\\eclipse_e-puck2\\tool
 729              		.file 3 "c:\\users\\salma chatagny\\documents\\epfl\\ba6\\microinformatique\\eclipse_e-puck2\\tool
 730              		.file 4 "c:\\users\\salma chatagny\\documents\\epfl\\ba6\\microinformatique\\eclipse_e-puck2\\tool
 731              		.file 5 "c:\\users\\salma chatagny\\documents\\epfl\\ba6\\microinformatique\\eclipse_e-puck2\\tool
 732              		.file 6 "c:\\users\\salma chatagny\\documents\\epfl\\ba6\\microinformatique\\eclipse_e-puck2\\tool
 733              		.file 7 "c:\\users\\salma chatagny\\documents\\epfl\\ba6\\microinformatique\\eclipse_e-puck2\\tool
 734              		.file 8 "c:\\users\\salma chatagny\\documents\\epfl\\ba6\\microinformatique\\eclipse_e-puck2\\tool
 735              		.file 9 "c:\\users\\salma chatagny\\documents\\epfl\\ba6\\microinformatique\\eclipse_e-puck2\\tool
 736              		.file 10 "../../lib/e-puck2_main-processor/ChibiOS//os/rt/ports/ARMCMx/compilers/GCC/chtypes.h"
 737              		.file 11 "../../lib/e-puck2_main-processor/ChibiOS//os/rt/include/chsystypes.h"
 738              		.file 12 "../../lib/e-puck2_main-processor/ChibiOS//os/rt/include/chschd.h"
 739              		.file 13 "../../lib/e-puck2_main-processor/ChibiOS//os/ext/CMSIS/include/core_cm4.h"
 740              		.file 14 "../../lib/e-puck2_main-processor/ChibiOS//os/ext/CMSIS/ST/system_stm32f4xx.h"
 741              		.file 15 "../../lib/e-puck2_main-processor/ChibiOS//os/ext/CMSIS/ST/stm32f407xx.h"
ARM GAS  C:\Users\SALMAC~1\AppData\Local\Temp\ccjY66kc.s 			page 14


 742              		.file 16 "../../lib/e-puck2_main-processor/ChibiOS//os/rt/ports/ARMCMx/chcore.h"
 743              		.file 17 "../../lib/e-puck2_main-processor/ChibiOS//os/rt/ports/ARMCMx/chcore_v7m.h"
 744              		.file 18 "../../lib/e-puck2_main-processor/ChibiOS//os/rt/include/chdebug.h"
 745              		.file 19 "../../lib/e-puck2_main-processor/ChibiOS//os/rt/include/chtm.h"
 746              		.file 20 "../../lib/e-puck2_main-processor/ChibiOS//os/rt/include/chstats.h"
 747              		.file 21 "../../lib/e-puck2_main-processor/ChibiOS//os/rt/include/chsem.h"
 748              		.file 22 "../../lib/e-puck2_main-processor/ChibiOS//os/rt/include/chmtx.h"
 749              		.file 23 "../../lib/e-puck2_main-processor/ChibiOS//os/rt/include/chregistry.h"
 750              		.file 24 "../../lib/e-puck2_main-processor/ChibiOS//os/rt/include/chevents.h"
 751              		.file 25 "../../lib/e-puck2_main-processor/ChibiOS//os/rt/include/chqueues.h"
 752              		.file 26 "../../lib/e-puck2_main-processor/ChibiOS//os/hal/ports/STM32/STM32F4xx/stm32_dma.h"
 753              		.file 27 "../../lib/e-puck2_main-processor/ChibiOS//os/hal/include/hal_ioblock.h"
 754              		.file 28 "../../lib/e-puck2_main-processor/ChibiOS//os/hal/ports/STM32/LLD/GPIOv2/pal_lld.h"
 755              		.file 29 "../../lib/e-puck2_main-processor/ChibiOS//os/hal/include/adc.h"
 756              		.file 30 "../../lib/e-puck2_main-processor/ChibiOS//os/hal/ports/STM32/STM32F4xx/adc_lld.h"
 757              		.file 31 "../../lib/e-puck2_main-processor/ChibiOS//os/hal/include/can.h"
 758              		.file 32 "../../lib/e-puck2_main-processor/ChibiOS//os/hal/ports/STM32/LLD/can_lld.h"
 759              		.file 33 "../../lib/e-puck2_main-processor/ChibiOS//os/hal/include/dac.h"
 760              		.file 34 "../../lib/e-puck2_main-processor/ChibiOS//os/hal/ports/STM32/LLD/DACv1/dac_lld.h"
 761              		.file 35 "../../lib/e-puck2_main-processor/ChibiOS//os/hal/include/ext.h"
 762              		.file 36 "../../lib/e-puck2_main-processor/ChibiOS//os/hal/ports/STM32/LLD/ext_lld.h"
 763              		.file 37 "../../lib/e-puck2_main-processor/ChibiOS//os/hal/include/gpt.h"
 764              		.file 38 "../../lib/e-puck2_main-processor/ChibiOS//os/hal/ports/STM32/LLD/TIMv1/gpt_lld.h"
 765              		.file 39 "../../lib/e-puck2_main-processor/ChibiOS//os/hal/ports/STM32/LLD/TIMv1/stm32_tim.h"
 766              		.file 40 "../../lib/e-puck2_main-processor/ChibiOS//os/hal/include/i2c.h"
 767              		.file 41 "../../lib/e-puck2_main-processor/ChibiOS//os/hal/ports/STM32/LLD/I2Cv1/i2c_lld.h"
 768              		.file 42 "../../lib/e-puck2_main-processor/ChibiOS//os/hal/include/i2s.h"
 769              		.file 43 "../../lib/e-puck2_main-processor/ChibiOS//os/hal/ports/STM32/LLD/SPIv1/i2s_lld.h"
 770              		.file 44 "../../lib/e-puck2_main-processor/ChibiOS//os/hal/include/pwm.h"
 771              		.file 45 "../../lib/e-puck2_main-processor/ChibiOS//os/hal/ports/STM32/LLD/TIMv1/pwm_lld.h"
 772              		.file 46 "../../lib/e-puck2_main-processor/ChibiOS//os/hal/include/serial.h"
 773              		.file 47 "../../lib/e-puck2_main-processor/ChibiOS//os/hal/ports/STM32/LLD/USARTv1/serial_lld.h"
 774              		.file 48 "../../lib/e-puck2_main-processor/ChibiOS//os/hal/include/sdc.h"
 775              		.file 49 "../../lib/e-puck2_main-processor/ChibiOS//os/hal/ports/STM32/LLD/sdc_lld.h"
 776              		.file 50 "../../lib/e-puck2_main-processor/ChibiOS//os/hal/include/spi.h"
 777              		.file 51 "../../lib/e-puck2_main-processor/ChibiOS//os/hal/ports/STM32/LLD/SPIv1/spi_lld.h"
 778              		.file 52 "../../lib/e-puck2_main-processor/ChibiOS//os/hal/include/usb.h"
 779              		.file 53 "../../lib/e-puck2_main-processor/ChibiOS//os/hal/ports/STM32/LLD/OTGv1/usb_lld.h"
 780              		.file 54 "../../lib/e-puck2_main-processor/ChibiOS//os/hal/ports/STM32/LLD/OTGv1/stm32_otg.h"
 781              		.file 55 "../../lib/e-puck2_main-processor/src/motors.h"