ARM GAS  C:\Users\SALMAC~1\AppData\Local\Temp\ccmnu5If.s 			page 1


   1              		.cpu cortex-m4
   2              		.eabi_attribute 27, 1
   3              		.eabi_attribute 28, 1
   4              		.eabi_attribute 20, 1
   5              		.eabi_attribute 21, 1
   6              		.eabi_attribute 23, 3
   7              		.eabi_attribute 24, 1
   8              		.eabi_attribute 25, 1
   9              		.eabi_attribute 26, 1
  10              		.eabi_attribute 30, 2
  11              		.eabi_attribute 34, 1
  12              		.eabi_attribute 18, 4
  13              		.file	"process_sensor.c"
  14              		.text
  15              	.Ltext0:
  16              		.cfi_sections	.debug_frame
  17              		.section	.text.ProcessMeasure,"ax",%progbits
  18              		.align	1
  19              		.p2align 4,,15
  20              		.syntax unified
  21              		.thumb
  22              		.thumb_func
  23              		.fpu fpv4-sp-d16
  24              		.type	ProcessMeasure, %function
  25              	ProcessMeasure:
  26              	.LFB256:
  27              		.file 1 "process_sensor.c"
  28              		.loc 1 25 0
  29              		.cfi_startproc
  30              		@ args = 0, pretend = 0, frame = 8
  31              		@ frame_needed = 0, uses_anonymous_args = 0
  32              	.LVL0:
  33 0000 70B5     		push	{r4, r5, r6, lr}
  34              		.cfi_def_cfa_offset 16
  35              		.cfi_offset 4, -16
  36              		.cfi_offset 5, -12
  37              		.cfi_offset 6, -8
  38              		.cfi_offset 14, -4
  39              	.LBB5:
  40              	.LBB6:
  41              		.file 2 "../../lib/e-puck2_main-processor/ChibiOS//os/rt/include/chregistry.h"
  42              		.loc 2 135 0
  43 0002 164A     		ldr	r2, .L14
  44              	.LBE6:
  45              	.LBE5:
  46              		.loc 1 25 0
  47 0004 164B     		ldr	r3, .L14+4
  48              	.LBB9:
  49              	.LBB7:
  50              		.loc 2 135 0
  51 0006 9269     		ldr	r2, [r2, #24]
  52 0008 1649     		ldr	r1, .L14+8
  53              	.LBE7:
  54              	.LBE9:
  55              		.loc 1 25 0
  56 000a 1B68     		ldr	r3, [r3]
  57 000c 164D     		ldr	r5, .L14+12
ARM GAS  C:\Users\SALMAC~1\AppData\Local\Temp\ccmnu5If.s 			page 2


  58              	.LBB10:
  59              	.LBB8:
  60              		.loc 2 135 0
  61 000e 9161     		str	r1, [r2, #24]
  62              	.LBE8:
  63              	.LBE10:
  64              		.loc 1 25 0
  65 0010 82B0     		sub	sp, sp, #8
  66              		.cfi_def_cfa_offset 24
  67              	.LBB11:
  68              		.loc 1 39 0
  69 0012 0126     		movs	r6, #1
  70              	.LBE11:
  71              		.loc 1 25 0
  72 0014 0193     		str	r3, [sp, #4]
  73              	.LVL1:
  74              	.L6:
  75              	.LBB12:
  76              		.loc 1 33 0
  77 0016 0024     		movs	r4, #0
  78 0018 0BE0     		b	.L5
  79              	.LVL2:
  80              	.L13:
  81              		.loc 1 40 0
  82 001a 032C     		cmp	r4, #3
  83              		.loc 1 42 0
  84 001c 4FF05A00 		mov	r0, #90
  85              		.loc 1 46 0
  86 0020 C8BF     		it	gt
  87 0022 6FF05900 		mvngt	r0, #89
  88              		.loc 1 39 0
  89 0026 2E70     		strb	r6, [r5]
  90              		.loc 1 46 0
  91 0028 FFF7FEFF 		bl	turn
  92              	.LVL3:
  93              	.L4:
  94              		.loc 1 33 0 discriminator 2
  95 002c 0134     		adds	r4, r4, #1
  96              	.LVL4:
  97 002e 082C     		cmp	r4, #8
  98 0030 0DD0     		beq	.L12
  99              	.LVL5:
 100              	.L5:
 101              		.loc 1 35 0
 102 0032 2046     		mov	r0, r4
 103 0034 FFF7FEFF 		bl	get_calibrated_prox
 104              	.LVL6:
 105              		.loc 1 36 0
 106 0038 B0F5487F 		cmp	r0, #800
 107 003c EDD8     		bhi	.L13
 108              		.loc 1 49 0
 109 003e 2B78     		ldrb	r3, [r5]	@ zero_extendqisi2
 110 0040 002B     		cmp	r3, #0
 111 0042 F3D1     		bne	.L4
 112              		.loc 1 33 0
 113 0044 0134     		adds	r4, r4, #1
 114              	.LVL7:
ARM GAS  C:\Users\SALMAC~1\AppData\Local\Temp\ccmnu5If.s 			page 3


 115              		.loc 1 51 0
 116 0046 FFF7FEFF 		bl	go_fast
 117              	.LVL8:
 118              		.loc 1 33 0
 119 004a 082C     		cmp	r4, #8
 120 004c F1D1     		bne	.L5
 121              	.L12:
 122              		.loc 1 54 0
 123 004e 4FF47A70 		mov	r0, #1000
 124 0052 FFF7FEFF 		bl	chThdSleep
 125              	.LVL9:
 126              		.loc 1 55 0
 127 0056 0023     		movs	r3, #0
 128 0058 2B70     		strb	r3, [r5]
 129              	.LBE12:
 130              		.loc 1 30 0
 131 005a DCE7     		b	.L6
 132              	.L15:
 133              		.align	2
 134              	.L14:
 135 005c 00000000 		.word	ch
 136 0060 00000000 		.word	__stack_chk_guard
 137 0064 00000000 		.word	.LANCHOR0
 138 0068 00000000 		.word	.LANCHOR1
 139              		.cfi_endproc
 140              	.LFE256:
 141              		.size	ProcessMeasure, .-ProcessMeasure
 142              		.section	.text.process_sensors_start,"ax",%progbits
 143              		.align	1
 144              		.p2align 4,,15
 145              		.global	process_sensors_start
 146              		.syntax unified
 147              		.thumb
 148              		.thumb_func
 149              		.fpu fpv4-sp-d16
 150              		.type	process_sensors_start, %function
 151              	process_sensors_start:
 152              	.LFB257:
 153              		.loc 1 62 0
 154              		.cfi_startproc
 155              		@ args = 0, pretend = 0, frame = 8
 156              		@ frame_needed = 0, uses_anonymous_args = 0
 157 0000 10B5     		push	{r4, lr}
 158              		.cfi_def_cfa_offset 8
 159              		.cfi_offset 4, -8
 160              		.cfi_offset 14, -4
 161 0002 0A4C     		ldr	r4, .L20
 162              		.loc 1 63 0
 163 0004 0A4B     		ldr	r3, .L20+4
 164              		.loc 1 62 0
 165 0006 2268     		ldr	r2, [r4]
 166              		.loc 1 63 0
 167 0008 0A48     		ldr	r0, .L20+8
 168              		.loc 1 62 0
 169 000a 84B0     		sub	sp, sp, #16
 170              		.cfi_def_cfa_offset 24
 171              		.loc 1 63 0
ARM GAS  C:\Users\SALMAC~1\AppData\Local\Temp\ccmnu5If.s 			page 4


 172 000c 4FF41E71 		mov	r1, #632
 173              		.loc 1 62 0
 174 0010 0392     		str	r2, [sp, #12]
 175              		.loc 1 63 0
 176 0012 0022     		movs	r2, #0
 177 0014 0092     		str	r2, [sp]
 178 0016 4022     		movs	r2, #64
 179 0018 FFF7FEFF 		bl	chThdCreateStatic
 180              	.LVL10:
 181              		.loc 1 64 0
 182 001c 039A     		ldr	r2, [sp, #12]
 183 001e 2368     		ldr	r3, [r4]
 184 0020 9A42     		cmp	r2, r3
 185 0022 01D1     		bne	.L19
 186 0024 04B0     		add	sp, sp, #16
 187              		.cfi_remember_state
 188              		.cfi_def_cfa_offset 8
 189              		@ sp needed
 190 0026 10BD     		pop	{r4, pc}
 191              	.L19:
 192              		.cfi_restore_state
 193 0028 FFF7FEFF 		bl	__stack_chk_fail
 194              	.LVL11:
 195              	.L21:
 196              		.align	2
 197              	.L20:
 198 002c 00000000 		.word	__stack_chk_guard
 199 0030 00000000 		.word	ProcessMeasure
 200 0034 00000000 		.word	.LANCHOR2
 201              		.cfi_endproc
 202              	.LFE257:
 203              		.size	process_sensors_start, .-process_sensors_start
 204              		.section	.bss.obstacle_detected,"aw",%nobits
 205              		.set	.LANCHOR1,. + 0
 206              		.type	obstacle_detected, %object
 207              		.size	obstacle_detected, 1
 208              	obstacle_detected:
 209 0000 00       		.space	1
 210              		.section	.bss.waProcessMeasure,"aw",%nobits
 211              		.align	3
 212              		.set	.LANCHOR2,. + 0
 213              		.type	waProcessMeasure, %object
 214              		.size	waProcessMeasure, 632
 215              	waProcessMeasure:
 216 0000 00000000 		.space	632
 216      00000000 
 216      00000000 
 216      00000000 
 216      00000000 
 217              		.section	.rodata.__FUNCTION__.11328,"a",%progbits
 218              		.align	2
 219              		.set	.LANCHOR0,. + 0
 220              		.type	__FUNCTION__.11328, %object
 221              		.size	__FUNCTION__.11328, 15
 222              	__FUNCTION__.11328:
 223 0000 50726F63 		.ascii	"ProcessMeasure\000"
 223      6573734D 
ARM GAS  C:\Users\SALMAC~1\AppData\Local\Temp\ccmnu5If.s 			page 5


 223      65617375 
 223      726500
 224              		.text
 225              	.Letext0:
 226              		.file 3 "c:\\users\\salma chatagny\\documents\\epfl\\ba6\\microinformatique\\eclipse_e-puck2\\tool
 227              		.file 4 "c:\\users\\salma chatagny\\documents\\epfl\\ba6\\microinformatique\\eclipse_e-puck2\\tool
 228              		.file 5 "c:\\users\\salma chatagny\\documents\\epfl\\ba6\\microinformatique\\eclipse_e-puck2\\tool
 229              		.file 6 "../../lib/e-puck2_main-processor/ChibiOS//os/rt/ports/ARMCMx/compilers/GCC/chtypes.h"
 230              		.file 7 "../../lib/e-puck2_main-processor/ChibiOS//os/rt/include/chsystypes.h"
 231              		.file 8 "../../lib/e-puck2_main-processor/ChibiOS//os/rt/include/chschd.h"
 232              		.file 9 "../../lib/e-puck2_main-processor/ChibiOS//os/ext/CMSIS/include/core_cm4.h"
 233              		.file 10 "../../lib/e-puck2_main-processor/ChibiOS//os/ext/CMSIS/ST/system_stm32f4xx.h"
 234              		.file 11 "../../lib/e-puck2_main-processor/ChibiOS//os/ext/CMSIS/ST/stm32f407xx.h"
 235              		.file 12 "../../lib/e-puck2_main-processor/ChibiOS//os/rt/ports/ARMCMx/chcore.h"
 236              		.file 13 "../../lib/e-puck2_main-processor/ChibiOS//os/rt/ports/ARMCMx/chcore_v7m.h"
 237              		.file 14 "../../lib/e-puck2_main-processor/ChibiOS//os/rt/include/chdebug.h"
 238              		.file 15 "../../lib/e-puck2_main-processor/ChibiOS//os/rt/include/chtm.h"
 239              		.file 16 "../../lib/e-puck2_main-processor/ChibiOS//os/rt/include/chstats.h"
 240              		.file 17 "../../lib/e-puck2_main-processor/ChibiOS//os/rt/include/chsem.h"
 241              		.file 18 "../../lib/e-puck2_main-processor/ChibiOS//os/rt/include/chmtx.h"
 242              		.file 19 "../../lib/e-puck2_main-processor/ChibiOS//os/rt/include/chevents.h"
 243              		.file 20 "../../lib/e-puck2_main-processor/ChibiOS//os/rt/include/chqueues.h"
 244              		.file 21 "../../lib/e-puck2_main-processor/ChibiOS//os/hal/ports/STM32/STM32F4xx/stm32_dma.h"
 245              		.file 22 "../../lib/e-puck2_main-processor/ChibiOS//os/hal/include/hal_ioblock.h"
 246              		.file 23 "../../lib/e-puck2_main-processor/ChibiOS//os/hal/ports/STM32/LLD/GPIOv2/pal_lld.h"
 247              		.file 24 "../../lib/e-puck2_main-processor/ChibiOS//os/hal/include/adc.h"
 248              		.file 25 "../../lib/e-puck2_main-processor/ChibiOS//os/hal/ports/STM32/STM32F4xx/adc_lld.h"
 249              		.file 26 "../../lib/e-puck2_main-processor/ChibiOS//os/hal/include/can.h"
 250              		.file 27 "../../lib/e-puck2_main-processor/ChibiOS//os/hal/ports/STM32/LLD/can_lld.h"
 251              		.file 28 "../../lib/e-puck2_main-processor/ChibiOS//os/hal/include/dac.h"
 252              		.file 29 "../../lib/e-puck2_main-processor/ChibiOS//os/hal/ports/STM32/LLD/DACv1/dac_lld.h"
 253              		.file 30 "../../lib/e-puck2_main-processor/ChibiOS//os/hal/include/ext.h"
 254              		.file 31 "../../lib/e-puck2_main-processor/ChibiOS//os/hal/ports/STM32/LLD/ext_lld.h"
 255              		.file 32 "../../lib/e-puck2_main-processor/ChibiOS//os/hal/include/gpt.h"
 256              		.file 33 "../../lib/e-puck2_main-processor/ChibiOS//os/hal/ports/STM32/LLD/TIMv1/gpt_lld.h"
 257              		.file 34 "../../lib/e-puck2_main-processor/ChibiOS//os/hal/ports/STM32/LLD/TIMv1/stm32_tim.h"
 258              		.file 35 "../../lib/e-puck2_main-processor/ChibiOS//os/hal/include/i2c.h"
 259              		.file 36 "../../lib/e-puck2_main-processor/ChibiOS//os/hal/ports/STM32/LLD/I2Cv1/i2c_lld.h"
 260              		.file 37 "../../lib/e-puck2_main-processor/ChibiOS//os/hal/include/i2s.h"
 261              		.file 38 "../../lib/e-puck2_main-processor/ChibiOS//os/hal/ports/STM32/LLD/SPIv1/i2s_lld.h"
 262              		.file 39 "../../lib/e-puck2_main-processor/ChibiOS//os/hal/include/pwm.h"
 263              		.file 40 "../../lib/e-puck2_main-processor/ChibiOS//os/hal/ports/STM32/LLD/TIMv1/pwm_lld.h"
 264              		.file 41 "../../lib/e-puck2_main-processor/ChibiOS//os/hal/include/serial.h"
 265              		.file 42 "../../lib/e-puck2_main-processor/ChibiOS//os/hal/ports/STM32/LLD/USARTv1/serial_lld.h"
 266              		.file 43 "../../lib/e-puck2_main-processor/ChibiOS//os/hal/include/sdc.h"
 267              		.file 44 "../../lib/e-puck2_main-processor/ChibiOS//os/hal/ports/STM32/LLD/sdc_lld.h"
 268              		.file 45 "../../lib/e-puck2_main-processor/ChibiOS//os/hal/include/spi.h"
 269              		.file 46 "../../lib/e-puck2_main-processor/ChibiOS//os/hal/ports/STM32/LLD/SPIv1/spi_lld.h"
 270              		.file 47 "../../lib/e-puck2_main-processor/ChibiOS//os/hal/include/usb.h"
 271              		.file 48 "../../lib/e-puck2_main-processor/ChibiOS//os/hal/ports/STM32/LLD/OTGv1/usb_lld.h"
 272              		.file 49 "../../lib/e-puck2_main-processor/ChibiOS//os/hal/ports/STM32/LLD/OTGv1/stm32_otg.h"
 273              		.file 50 "../../lib/e-puck2_main-processor/ChibiOS_ext/os/hal/include/../ports/STM32/STM32F4xx/dcm
 274              		.file 51 "c:\\users\\salma chatagny\\documents\\epfl\\ba6\\microinformatique\\eclipse_e-puck2\\too
 275              		.file 52 "c:\\users\\salma chatagny\\documents\\epfl\\ba6\\microinformatique\\eclipse_e-puck2\\too
 276              		.file 53 "c:\\users\\salma chatagny\\documents\\epfl\\ba6\\microinformatique\\eclipse_e-puck2\\too
 277              		.file 54 "../../lib/e-puck2_main-processor/src/msgbus/messagebus.h"
 278              		.file 55 "c:\\users\\salma chatagny\\documents\\epfl\\ba6\\microinformatique\\eclipse_e-puck2\\too
ARM GAS  C:\Users\SALMAC~1\AppData\Local\Temp\ccmnu5If.s 			page 6


 279              		.file 56 "c:\\users\\salma chatagny\\documents\\epfl\\ba6\\microinformatique\\eclipse_e-puck2\\too
 280              		.file 57 "../../lib/e-puck2_main-processor/src/parameter/parameter.h"
 281              		.file 58 "./main.h"
 282              		.file 59 "../../lib/e-puck2_main-processor/ChibiOS//os/rt/include/chthreads.h"
 283              		.file 60 "./Mouvements.h"
 284              		.file 61 "../../lib/e-puck2_main-processor/src/sensors/proximity.h"