ARM GAS  C:\Users\afgou\AppData\Local\Temp\ccL2NwyJ.s 			page 1


   1              		.cpu cortex-m4
   2              		.eabi_attribute 27, 1
   3              		.eabi_attribute 28, 1
   4              		.eabi_attribute 20, 1
   5              		.eabi_attribute 21, 1
   6              		.eabi_attribute 23, 3
   7              		.eabi_attribute 24, 1
   8              		.eabi_attribute 25, 1
   9              		.eabi_attribute 26, 1
  10              		.eabi_attribute 30, 2
  11              		.eabi_attribute 34, 1
  12              		.eabi_attribute 18, 4
  13              		.file	"regulator.c"
  14              		.text
  15              	.Ltext0:
  16              		.cfi_sections	.debug_frame
  17              		.section	.text.regulator_pd,"ax",%progbits
  18              		.align	1
  19              		.p2align 4,,15
  20              		.global	regulator_pd
  21              		.syntax unified
  22              		.thumb
  23              		.thumb_func
  24              		.fpu fpv4-sp-d16
  25              		.type	regulator_pd, %function
  26              	regulator_pd:
  27              	.LFB3:
  28              		.file 1 "regulator.c"
  29              		.loc 1 27 0
  30              		.cfi_startproc
  31              		@ args = 0, pretend = 0, frame = 8
  32              		@ frame_needed = 0, uses_anonymous_args = 0
  33              	.LVL0:
  34 0000 6FF01D03 		mvn	r3, #29
  35 0004 9842     		cmp	r0, r3
  36 0006 70B5     		push	{r4, r5, r6, lr}
  37              		.cfi_def_cfa_offset 16
  38              		.cfi_offset 4, -16
  39              		.cfi_offset 5, -12
  40              		.cfi_offset 6, -8
  41              		.cfi_offset 14, -4
  42 0008 B8BF     		it	lt
  43 000a 1846     		movlt	r0, r3
  44              	.LVL1:
  45              		.loc 1 35 0
  46 000c 1E28     		cmp	r0, #30
  47 000e A8BF     		it	ge
  48 0010 1E20     		movge	r0, #30
  49              	.LVL2:
  50 0012 2C4D     		ldr	r5, .L10
  51              		.loc 1 27 0
  52 0014 2C4E     		ldr	r6, .L10+4
  53              		.loc 1 35 0
  54 0016 D5ED007A 		vldr.32	s15, [r5]
  55              		.loc 1 27 0
  56 001a 3368     		ldr	r3, [r6]
  57              		.loc 1 35 0
ARM GAS  C:\Users\afgou\AppData\Local\Temp\ccL2NwyJ.s 			page 2


  58 001c 07EE100A 		vmov	s14, r0	@ int
  59              		.loc 1 27 0
  60 0020 2DED048B 		vpush.64	{d8, d9}
  61              		.cfi_def_cfa_offset 32
  62              		.cfi_offset 80, -32
  63              		.cfi_offset 81, -28
  64              		.cfi_offset 82, -24
  65              		.cfi_offset 83, -20
  66              		.loc 1 35 0
  67 0024 B8EEC78A 		vcvt.f32.s32	s16, s14
  68              		.loc 1 27 0
  69 0028 82B0     		sub	sp, sp, #8
  70              		.cfi_def_cfa_offset 40
  71              		.loc 1 35 0
  72 002a 78EE677A 		vsub.f32	s15, s16, s15
  73              		.loc 1 27 0
  74 002e 0193     		str	r3, [sp, #4]
  75              		.loc 1 35 0
  76 0030 FDEEE77A 		vcvt.s32.f32	s15, s15
  77 0034 17EE903A 		vmov	r3, s15	@ int
  78 0038 1BB2     		sxth	r3, r3
  79 003a 08EE903A 		vmov	s17, r3	@ int
  80              	.LVL3:
  81              		.loc 1 38 0
  82 003e 81B3     		cbz	r1, .L8
  83              		.loc 1 45 0
  84 0040 FFF7FEFF 		bl	get_right_speed
  85              	.LVL4:
  86 0044 07EE900A 		vmov	s15, r0	@ int
  87 0048 DFED209A 		vldr.32	s19, .L10+8
  88 004c 9FED209A 		vldr.32	s18, .L10+12
  89 0050 F8EEE77A 		vcvt.f32.s32	s15, s15
  90 0054 F8EEE88A 		vcvt.f32.s32	s17, s17
  91              	.LVL5:
  92 0058 E8EE297A 		vfma.f32	s15, s16, s19
  93              	.L6:
  94 005c E8EE897A 		vfma.f32	s15, s17, s18
  95 0060 FDEEE77A 		vcvt.s32.f32	s15, s15
  96 0064 17EE903A 		vmov	r3, s15	@ int
  97 0068 1CB2     		sxth	r4, r3
  98              	.LVL6:
  99              		.loc 1 46 0
 100 006a FFF7FEFF 		bl	get_left_speed
 101              	.LVL7:
 102 006e 07EE900A 		vmov	s15, r0	@ int
 103 0072 F8EEE77A 		vcvt.f32.s32	s15, s15
 104              		.loc 1 49 0
 105 0076 2046     		mov	r0, r4
 106              		.loc 1 46 0
 107 0078 E8EE697A 		vfms.f32	s15, s16, s19
 108 007c E8EEC97A 		vfms.f32	s15, s17, s18
 109 0080 FDEEE77A 		vcvt.s32.f32	s15, s15
 110 0084 17EE903A 		vmov	r3, s15	@ int
 111 0088 19B2     		sxth	r1, r3
 112              	.LVL8:
 113              		.loc 1 49 0
 114 008a FFF7FEFF 		bl	set_speed
ARM GAS  C:\Users\afgou\AppData\Local\Temp\ccL2NwyJ.s 			page 3


 115              	.LVL9:
 116              		.loc 1 51 0
 117 008e 019A     		ldr	r2, [sp, #4]
 118 0090 3368     		ldr	r3, [r6]
 119              		.loc 1 50 0
 120 0092 85ED008A 		vstr.32	s16, [r5]
 121              		.loc 1 51 0
 122 0096 9A42     		cmp	r2, r3
 123 0098 12D1     		bne	.L9
 124 009a 02B0     		add	sp, sp, #8
 125              		.cfi_remember_state
 126              		.cfi_def_cfa_offset 32
 127              		@ sp needed
 128 009c BDEC048B 		vldm	sp!, {d8-d9}
 129              		.cfi_restore 82
 130              		.cfi_restore 83
 131              		.cfi_restore 80
 132              		.cfi_restore 81
 133              		.cfi_def_cfa_offset 16
 134 00a0 70BD     		pop	{r4, r5, r6, pc}
 135              	.LVL10:
 136              	.L8:
 137              		.cfi_restore_state
 138              		.loc 1 40 0
 139 00a2 FFF7FEFF 		bl	get_right_speed
 140              	.LVL11:
 141 00a6 07EE900A 		vmov	s15, r0	@ int
 142 00aa DFED0A9A 		vldr.32	s19, .L10+16
 143 00ae F8EEE77A 		vcvt.f32.s32	s15, s15
 144 00b2 F8EEE88A 		vcvt.f32.s32	s17, s17
 145              	.LVL12:
 146 00b6 E8EE297A 		vfma.f32	s15, s16, s19
 147 00ba B6EE009A 		vmov.f32	s18, #5.0e-1
 148 00be CDE7     		b	.L6
 149              	.LVL13:
 150              	.L9:
 151              		.loc 1 51 0
 152 00c0 FFF7FEFF 		bl	__stack_chk_fail
 153              	.LVL14:
 154              	.L11:
 155              		.align	2
 156              	.L10:
 157 00c4 00000000 		.word	.LANCHOR0
 158 00c8 00000000 		.word	__stack_chk_guard
 159 00cc 6666663F 		.word	1063675494
 160 00d0 9A99993E 		.word	1050253722
 161 00d4 CDCC8C3F 		.word	1066192077
 162              		.cfi_endproc
 163              	.LFE3:
 164              		.size	regulator_pd, .-regulator_pd
 165              		.section	.text.regulator_difference,"ax",%progbits
 166              		.align	1
 167              		.p2align 4,,15
 168              		.global	regulator_difference
 169              		.syntax unified
 170              		.thumb
 171              		.thumb_func
ARM GAS  C:\Users\afgou\AppData\Local\Temp\ccL2NwyJ.s 			page 4


 172              		.fpu fpv4-sp-d16
 173              		.type	regulator_difference, %function
 174              	regulator_difference:
 175              	.LFB4:
 176              		.loc 1 55 0
 177              		.cfi_startproc
 178              		@ args = 0, pretend = 0, frame = 8
 179              		@ frame_needed = 0, uses_anonymous_args = 0
 180              	.LVL15:
 181 0000 30B5     		push	{r4, r5, lr}
 182              		.cfi_def_cfa_offset 12
 183              		.cfi_offset 4, -12
 184              		.cfi_offset 5, -8
 185              		.cfi_offset 14, -4
 186 0002 0D4C     		ldr	r4, .L20
 187 0004 83B0     		sub	sp, sp, #12
 188              		.cfi_def_cfa_offset 24
 189              		.loc 1 55 0
 190 0006 2568     		ldr	r5, [r4]
 191 0008 0195     		str	r5, [sp, #4]
 192              		.loc 1 64 0
 193 000a FA28     		cmp	r0, #250
 194 000c 01DD     		ble	.L13
 195              		.loc 1 64 0 is_stmt 0 discriminator 1
 196 000e FA29     		cmp	r1, #250
 197 0010 0CDC     		bgt	.L18
 198              	.L13:
 199              		.loc 1 69 0 is_stmt 1
 200 0012 D01A     		subs	r0, r2, r3
 201              	.LVL16:
 202 0014 1438     		subs	r0, r0, #20
 203 0016 00B2     		sxth	r0, r0
 204              	.LVL17:
 205              	.L14:
 206              		.loc 1 72 0
 207 0018 019A     		ldr	r2, [sp, #4]
 208              	.LVL18:
 209 001a 2368     		ldr	r3, [r4]
 210              	.LVL19:
 211 001c 9A42     		cmp	r2, r3
 212 001e 08D1     		bne	.L19
 213 0020 0021     		movs	r1, #0
 214              	.LVL20:
 215              		.loc 1 73 0
 216 0022 03B0     		add	sp, sp, #12
 217              		.cfi_remember_state
 218              		.cfi_def_cfa_offset 12
 219              		@ sp needed
 220 0024 BDE83040 		pop	{r4, r5, lr}
 221              		.cfi_restore 14
 222              		.cfi_restore 5
 223              		.cfi_restore 4
 224              		.cfi_def_cfa_offset 0
 225              		.loc 1 72 0
 226 0028 FFF7FEBF 		b	regulator_pd
 227              	.LVL21:
 228              	.L18:
ARM GAS  C:\Users\afgou\AppData\Local\Temp\ccL2NwyJ.s 			page 5


 229              		.cfi_restore_state
 230              		.loc 1 66 0
 231 002c 401A     		subs	r0, r0, r1
 232              	.LVL22:
 233 002e 00B2     		sxth	r0, r0
 234              	.LVL23:
 235 0030 F2E7     		b	.L14
 236              	.LVL24:
 237              	.L19:
 238              		.loc 1 72 0
 239 0032 FFF7FEFF 		bl	__stack_chk_fail
 240              	.LVL25:
 241              	.L21:
 242 0036 00BF     		.align	2
 243              	.L20:
 244 0038 00000000 		.word	__stack_chk_guard
 245              		.cfi_endproc
 246              	.LFE4:
 247              		.size	regulator_difference, .-regulator_difference
 248              		.section	.text.regulator_follow_wall,"ax",%progbits
 249              		.align	1
 250              		.p2align 4,,15
 251              		.global	regulator_follow_wall
 252              		.syntax unified
 253              		.thumb
 254              		.thumb_func
 255              		.fpu fpv4-sp-d16
 256              		.type	regulator_follow_wall, %function
 257              	regulator_follow_wall:
 258              	.LFB5:
 259              		.loc 1 76 0
 260              		.cfi_startproc
 261              		@ args = 0, pretend = 0, frame = 8
 262              		@ frame_needed = 0, uses_anonymous_args = 0
 263              	.LVL26:
 264 0000 00B5     		push	{lr}
 265              		.cfi_def_cfa_offset 4
 266              		.cfi_offset 14, -4
 267 0002 0C4B     		ldr	r3, .L28
 268 0004 83B0     		sub	sp, sp, #12
 269              		.cfi_def_cfa_offset 16
 270              		.loc 1 79 0
 271 0006 401A     		subs	r0, r0, r1
 272              	.LVL27:
 273              		.loc 1 76 0
 274 0008 1968     		ldr	r1, [r3]
 275              	.LVL28:
 276 000a 0191     		str	r1, [sp, #4]
 277              		.loc 1 81 0
 278 000c 022A     		cmp	r2, #2
 279              		.loc 1 79 0
 280 000e 80B2     		uxth	r0, r0
 281              	.LVL29:
 282              		.loc 1 84 0
 283 0010 019A     		ldr	r2, [sp, #4]
 284              	.LVL30:
 285 0012 1B68     		ldr	r3, [r3]
ARM GAS  C:\Users\afgou\AppData\Local\Temp\ccL2NwyJ.s 			page 6


 286              		.loc 1 82 0
 287 0014 04BF     		itt	eq
 288 0016 C0F11400 		rsbeq	r0, r0, #20
 289              	.LVL31:
 290 001a 80B2     		uxtheq	r0, r0
 291              	.LVL32:
 292              		.loc 1 84 0
 293 001c 9A42     		cmp	r2, r3
 294 001e 06D1     		bne	.L27
 295 0020 00B2     		sxth	r0, r0
 296 0022 0121     		movs	r1, #1
 297              		.loc 1 85 0
 298 0024 03B0     		add	sp, sp, #12
 299              		.cfi_remember_state
 300              		.cfi_def_cfa_offset 4
 301              		@ sp needed
 302 0026 5DF804EB 		ldr	lr, [sp], #4
 303              		.cfi_restore 14
 304              		.cfi_def_cfa_offset 0
 305              		.loc 1 84 0
 306 002a FFF7FEBF 		b	regulator_pd
 307              	.LVL33:
 308              	.L27:
 309              		.cfi_restore_state
 310 002e FFF7FEFF 		bl	__stack_chk_fail
 311              	.LVL34:
 312              	.L29:
 313 0032 00BF     		.align	2
 314              	.L28:
 315 0034 00000000 		.word	__stack_chk_guard
 316              		.cfi_endproc
 317              	.LFE5:
 318              		.size	regulator_follow_wall, .-regulator_follow_wall
 319              		.section	.bss.last_difference,"aw",%nobits
 320              		.align	2
 321              		.set	.LANCHOR0,. + 0
 322              		.type	last_difference, %object
 323              		.size	last_difference, 4
 324              	last_difference:
 325 0000 00000000 		.space	4
 326              		.text
 327              	.Letext0:
 328              		.file 2 "c:\\program files\\eclipse_e-puck2\\tools\\gcc-arm-none-eabi-7-2017-q4-major-win32\\arm-n
 329              		.file 3 "c:\\program files\\eclipse_e-puck2\\tools\\gcc-arm-none-eabi-7-2017-q4-major-win32\\arm-n
 330              		.file 4 "c:\\program files\\eclipse_e-puck2\\tools\\gcc-arm-none-eabi-7-2017-q4-major-win32\\arm-n
 331              		.file 5 "c:\\program files\\eclipse_e-puck2\\tools\\gcc-arm-none-eabi-7-2017-q4-major-win32\\lib\\
 332              		.file 6 "c:\\program files\\eclipse_e-puck2\\tools\\gcc-arm-none-eabi-7-2017-q4-major-win32\\arm-n
 333              		.file 7 "c:\\program files\\eclipse_e-puck2\\tools\\gcc-arm-none-eabi-7-2017-q4-major-win32\\arm-n
 334              		.file 8 "c:\\program files\\eclipse_e-puck2\\tools\\gcc-arm-none-eabi-7-2017-q4-major-win32\\arm-n
 335              		.file 9 "./constantes.h"
 336              		.file 10 "./mouvements.h"