ARM GAS  C:\Users\SALMAC~1\AppData\Local\Temp\ccqMZLdK.s 			page 1


   1              		.cpu cortex-m4
   2              		.eabi_attribute 27, 1
   3              		.eabi_attribute 28, 1
   4              		.eabi_attribute 20, 1
   5              		.eabi_attribute 21, 1
   6              		.eabi_attribute 23, 3
   7              		.eabi_attribute 24, 1
   8              		.eabi_attribute 25, 1
   9              		.eabi_attribute 26, 1
  10              		.eabi_attribute 30, 2
  11              		.eabi_attribute 34, 1
  12              		.eabi_attribute 18, 4
  13              		.file	"regulator.c"
  14              		.text
  15              	.Ltext0:
  16              		.cfi_sections	.debug_frame
  17              		.section	.text.regulator_pd,"ax",%progbits
  18              		.align	1
  19              		.p2align 4,,15
  20              		.global	regulator_pd
  21              		.syntax unified
  22              		.thumb
  23              		.thumb_func
  24              		.fpu fpv4-sp-d16
  25              		.type	regulator_pd, %function
  26              	regulator_pd:
  27              	.LFB3:
  28              		.file 1 "regulator.c"
  29              		.loc 1 27 0
  30              		.cfi_startproc
  31              		@ args = 0, pretend = 0, frame = 8
  32              		@ frame_needed = 0, uses_anonymous_args = 0
  33              	.LVL0:
  34 0000 2DE9F041 		push	{r4, r5, r6, r7, r8, lr}
  35              		.cfi_def_cfa_offset 24
  36              		.cfi_offset 4, -24
  37              		.cfi_offset 5, -20
  38              		.cfi_offset 6, -16
  39              		.cfi_offset 7, -12
  40              		.cfi_offset 8, -8
  41              		.cfi_offset 14, -4
  42 0004 6FF01D04 		mvn	r4, #29
  43 0008 8442     		cmp	r4, r0
  44 000a B8BF     		it	lt
  45 000c 0446     		movlt	r4, r0
  46 000e 1E2C     		cmp	r4, #30
  47 0010 A8BF     		it	ge
  48 0012 1E24     		movge	r4, #30
  49              	.LVL1:
  50              		.loc 1 37 0
  51 0014 2D4F     		ldr	r7, .L9
  52              		.loc 1 27 0
  53 0016 2E4E     		ldr	r6, .L9+4
  54              		.loc 1 37 0
  55 0018 07EE104A 		vmov	s14, r4	@ int
  56              		.loc 1 27 0
  57 001c 2DED048B 		vpush.64	{d8, d9}
ARM GAS  C:\Users\SALMAC~1\AppData\Local\Temp\ccqMZLdK.s 			page 2


  58              		.cfi_def_cfa_offset 40
  59              		.cfi_offset 80, -40
  60              		.cfi_offset 81, -36
  61              		.cfi_offset 82, -32
  62              		.cfi_offset 83, -28
  63              		.loc 1 37 0
  64 0020 D7ED007A 		vldr.32	s15, [r7]
  65              		.loc 1 27 0
  66 0024 3368     		ldr	r3, [r6]
  67              		.loc 1 37 0
  68 0026 F8EEC78A 		vcvt.f32.s32	s17, s14
  69              		.loc 1 27 0
  70 002a 82B0     		sub	sp, sp, #8
  71              		.cfi_def_cfa_offset 48
  72              		.loc 1 37 0
  73 002c 78EEE77A 		vsub.f32	s15, s17, s15
  74              		.loc 1 27 0
  75 0030 0193     		str	r3, [sp, #4]
  76              		.loc 1 37 0
  77 0032 FDEEE77A 		vcvt.s32.f32	s15, s15
  78 0036 17EE903A 		vmov	r3, s15	@ int
  79 003a 1DB2     		sxth	r5, r3
  80              	.LVL2:
  81              		.loc 1 40 0
  82 003c D9B1     		cbz	r1, .L7
  83              		.loc 1 47 0
  84 003e FFF7FEFF 		bl	get_right_speed
  85              	.LVL3:
  86 0042 A4B2     		uxth	r4, r4
  87 0044 ADB2     		uxth	r5, r5
  88 0046 04EB0508 		add	r8, r4, r5
  89 004a 8044     		add	r8, r8, r0
  90              		.loc 1 48 0
  91 004c FFF7FEFF 		bl	get_left_speed
  92              	.LVL4:
  93 0050 041B     		subs	r4, r0, r4
  94              	.LVL5:
  95 0052 611B     		subs	r1, r4, r5
  96              		.loc 1 47 0
  97 0054 0FFA88F8 		sxth	r8, r8
  98              	.LVL6:
  99              		.loc 1 48 0
 100 0058 09B2     		sxth	r1, r1
 101              	.LVL7:
 102              	.L3:
 103              		.loc 1 51 0
 104 005a 4046     		mov	r0, r8
 105 005c FFF7FEFF 		bl	set_speed
 106              	.LVL8:
 107              		.loc 1 53 0
 108 0060 019A     		ldr	r2, [sp, #4]
 109 0062 3368     		ldr	r3, [r6]
 110              		.loc 1 52 0
 111 0064 C7ED008A 		vstr.32	s17, [r7]
 112              		.loc 1 53 0
 113 0068 9A42     		cmp	r2, r3
 114 006a 2CD1     		bne	.L8
ARM GAS  C:\Users\SALMAC~1\AppData\Local\Temp\ccqMZLdK.s 			page 3


 115 006c 02B0     		add	sp, sp, #8
 116              		.cfi_remember_state
 117              		.cfi_def_cfa_offset 40
 118              		@ sp needed
 119 006e BDEC048B 		vldm	sp!, {d8-d9}
 120              		.cfi_restore 82
 121              		.cfi_restore 83
 122              		.cfi_restore 80
 123              		.cfi_restore 81
 124              		.cfi_def_cfa_offset 24
 125 0072 BDE8F081 		pop	{r4, r5, r6, r7, r8, pc}
 126              	.LVL9:
 127              	.L7:
 128              		.cfi_restore_state
 129              		.loc 1 42 0
 130 0076 FFF7FEFF 		bl	get_right_speed
 131              	.LVL10:
 132 007a 07EE900A 		vmov	s15, r0	@ int
 133 007e DFED159A 		vldr.32	s19, .L9+8
 134 0082 9FED159A 		vldr.32	s18, .L9+12
 135 0086 F8EEE77A 		vcvt.f32.s32	s15, s15
 136 008a 07EE105A 		vmov	s14, r5	@ int
 137 008e E8EEA97A 		vfma.f32	s15, s17, s19
 138 0092 B8EEC78A 		vcvt.f32.s32	s16, s14
 139 0096 E8EE097A 		vfma.f32	s15, s16, s18
 140 009a FDEEE77A 		vcvt.s32.f32	s15, s15
 141 009e 17EE903A 		vmov	r3, s15	@ int
 142 00a2 0FFA83F8 		sxth	r8, r3
 143              	.LVL11:
 144              		.loc 1 43 0
 145 00a6 FFF7FEFF 		bl	get_left_speed
 146              	.LVL12:
 147 00aa 07EE900A 		vmov	s15, r0	@ int
 148 00ae F8EEE77A 		vcvt.f32.s32	s15, s15
 149 00b2 E8EEE97A 		vfms.f32	s15, s17, s19
 150 00b6 E8EE497A 		vfms.f32	s15, s16, s18
 151 00ba FDEEE77A 		vcvt.s32.f32	s15, s15
 152 00be 17EE903A 		vmov	r3, s15	@ int
 153 00c2 19B2     		sxth	r1, r3
 154              	.LVL13:
 155 00c4 C9E7     		b	.L3
 156              	.LVL14:
 157              	.L8:
 158              		.loc 1 53 0
 159 00c6 FFF7FEFF 		bl	__stack_chk_fail
 160              	.LVL15:
 161              	.L10:
 162 00ca 00BF     		.align	2
 163              	.L9:
 164 00cc 00000000 		.word	.LANCHOR0
 165 00d0 00000000 		.word	__stack_chk_guard
 166 00d4 3333B33F 		.word	1068708659
 167 00d8 3333333F 		.word	1060320051
 168              		.cfi_endproc
 169              	.LFE3:
 170              		.size	regulator_pd, .-regulator_pd
 171              		.section	.text.regulator_difference,"ax",%progbits
ARM GAS  C:\Users\SALMAC~1\AppData\Local\Temp\ccqMZLdK.s 			page 4


 172              		.align	1
 173              		.p2align 4,,15
 174              		.global	regulator_difference
 175              		.syntax unified
 176              		.thumb
 177              		.thumb_func
 178              		.fpu fpv4-sp-d16
 179              		.type	regulator_difference, %function
 180              	regulator_difference:
 181              	.LFB4:
 182              		.loc 1 57 0
 183              		.cfi_startproc
 184              		@ args = 0, pretend = 0, frame = 8
 185              		@ frame_needed = 0, uses_anonymous_args = 0
 186              	.LVL16:
 187 0000 30B5     		push	{r4, r5, lr}
 188              		.cfi_def_cfa_offset 12
 189              		.cfi_offset 4, -12
 190              		.cfi_offset 5, -8
 191              		.cfi_offset 14, -4
 192 0002 0D4C     		ldr	r4, .L19
 193 0004 83B0     		sub	sp, sp, #12
 194              		.cfi_def_cfa_offset 24
 195              		.loc 1 57 0
 196 0006 2568     		ldr	r5, [r4]
 197 0008 0195     		str	r5, [sp, #4]
 198              		.loc 1 66 0
 199 000a FA28     		cmp	r0, #250
 200 000c 01DD     		ble	.L12
 201              		.loc 1 66 0 is_stmt 0 discriminator 1
 202 000e FA29     		cmp	r1, #250
 203 0010 0CDC     		bgt	.L17
 204              	.L12:
 205              		.loc 1 71 0 is_stmt 1
 206 0012 D01A     		subs	r0, r2, r3
 207              	.LVL17:
 208 0014 1438     		subs	r0, r0, #20
 209 0016 00B2     		sxth	r0, r0
 210              	.LVL18:
 211              	.L13:
 212              		.loc 1 73 0
 213 0018 019A     		ldr	r2, [sp, #4]
 214              	.LVL19:
 215 001a 2368     		ldr	r3, [r4]
 216              	.LVL20:
 217 001c 9A42     		cmp	r2, r3
 218 001e 08D1     		bne	.L18
 219 0020 0021     		movs	r1, #0
 220              	.LVL21:
 221              		.loc 1 74 0
 222 0022 03B0     		add	sp, sp, #12
 223              		.cfi_remember_state
 224              		.cfi_def_cfa_offset 12
 225              		@ sp needed
 226 0024 BDE83040 		pop	{r4, r5, lr}
 227              		.cfi_restore 14
 228              		.cfi_restore 5
ARM GAS  C:\Users\SALMAC~1\AppData\Local\Temp\ccqMZLdK.s 			page 5


 229              		.cfi_restore 4
 230              		.cfi_def_cfa_offset 0
 231              		.loc 1 73 0
 232 0028 FFF7FEBF 		b	regulator_pd
 233              	.LVL22:
 234              	.L17:
 235              		.cfi_restore_state
 236              		.loc 1 68 0
 237 002c 401A     		subs	r0, r0, r1
 238              	.LVL23:
 239 002e 00B2     		sxth	r0, r0
 240              	.LVL24:
 241 0030 F2E7     		b	.L13
 242              	.LVL25:
 243              	.L18:
 244              		.loc 1 73 0
 245 0032 FFF7FEFF 		bl	__stack_chk_fail
 246              	.LVL26:
 247              	.L20:
 248 0036 00BF     		.align	2
 249              	.L19:
 250 0038 00000000 		.word	__stack_chk_guard
 251              		.cfi_endproc
 252              	.LFE4:
 253              		.size	regulator_difference, .-regulator_difference
 254              		.section	.text.regulator_follow_wall,"ax",%progbits
 255              		.align	1
 256              		.p2align 4,,15
 257              		.global	regulator_follow_wall
 258              		.syntax unified
 259              		.thumb
 260              		.thumb_func
 261              		.fpu fpv4-sp-d16
 262              		.type	regulator_follow_wall, %function
 263              	regulator_follow_wall:
 264              	.LFB5:
 265              		.loc 1 77 0
 266              		.cfi_startproc
 267              		@ args = 0, pretend = 0, frame = 8
 268              		@ frame_needed = 0, uses_anonymous_args = 0
 269              	.LVL27:
 270 0000 00B5     		push	{lr}
 271              		.cfi_def_cfa_offset 4
 272              		.cfi_offset 14, -4
 273 0002 0C4B     		ldr	r3, .L27
 274 0004 83B0     		sub	sp, sp, #12
 275              		.cfi_def_cfa_offset 16
 276              		.loc 1 80 0
 277 0006 401A     		subs	r0, r0, r1
 278              	.LVL28:
 279              		.loc 1 77 0
 280 0008 1968     		ldr	r1, [r3]
 281              	.LVL29:
 282 000a 0191     		str	r1, [sp, #4]
 283              		.loc 1 82 0
 284 000c 012A     		cmp	r2, #1
 285              		.loc 1 80 0
ARM GAS  C:\Users\SALMAC~1\AppData\Local\Temp\ccqMZLdK.s 			page 6


 286 000e 80B2     		uxth	r0, r0
 287              	.LVL30:
 288              		.loc 1 85 0
 289 0010 019A     		ldr	r2, [sp, #4]
 290              	.LVL31:
 291 0012 1B68     		ldr	r3, [r3]
 292              		.loc 1 83 0
 293 0014 04BF     		itt	eq
 294 0016 C0F11400 		rsbeq	r0, r0, #20
 295              	.LVL32:
 296 001a 80B2     		uxtheq	r0, r0
 297              	.LVL33:
 298              		.loc 1 85 0
 299 001c 9A42     		cmp	r2, r3
 300 001e 06D1     		bne	.L26
 301 0020 00B2     		sxth	r0, r0
 302 0022 0121     		movs	r1, #1
 303              		.loc 1 86 0
 304 0024 03B0     		add	sp, sp, #12
 305              		.cfi_remember_state
 306              		.cfi_def_cfa_offset 4
 307              		@ sp needed
 308 0026 5DF804EB 		ldr	lr, [sp], #4
 309              		.cfi_restore 14
 310              		.cfi_def_cfa_offset 0
 311              		.loc 1 85 0
 312 002a FFF7FEBF 		b	regulator_pd
 313              	.LVL34:
 314              	.L26:
 315              		.cfi_restore_state
 316 002e FFF7FEFF 		bl	__stack_chk_fail
 317              	.LVL35:
 318              	.L28:
 319 0032 00BF     		.align	2
 320              	.L27:
 321 0034 00000000 		.word	__stack_chk_guard
 322              		.cfi_endproc
 323              	.LFE5:
 324              		.size	regulator_follow_wall, .-regulator_follow_wall
 325              		.section	.bss.last_difference,"aw",%nobits
 326              		.align	2
 327              		.set	.LANCHOR0,. + 0
 328              		.type	last_difference, %object
 329              		.size	last_difference, 4
 330              	last_difference:
 331 0000 00000000 		.space	4
 332              		.text
 333              	.Letext0:
 334              		.file 2 "c:\\users\\salma chatagny\\documents\\epfl\\ba6\\microinformatique\\eclipse_e-puck2\\tool
 335              		.file 3 "c:\\users\\salma chatagny\\documents\\epfl\\ba6\\microinformatique\\eclipse_e-puck2\\tool
 336              		.file 4 "c:\\users\\salma chatagny\\documents\\epfl\\ba6\\microinformatique\\eclipse_e-puck2\\tool
 337              		.file 5 "c:\\users\\salma chatagny\\documents\\epfl\\ba6\\microinformatique\\eclipse_e-puck2\\tool
 338              		.file 6 "c:\\users\\salma chatagny\\documents\\epfl\\ba6\\microinformatique\\eclipse_e-puck2\\tool
 339              		.file 7 "c:\\users\\salma chatagny\\documents\\epfl\\ba6\\microinformatique\\eclipse_e-puck2\\tool
 340              		.file 8 "c:\\users\\salma chatagny\\documents\\epfl\\ba6\\microinformatique\\eclipse_e-puck2\\tool
 341              		.file 9 "./constantes.h"
 342              		.file 10 "./mouvements.h"
ARM GAS  C:\Users\SALMAC~1\AppData\Local\Temp\ccqMZLdK.s 			page 7


 343              		.section	.debug_info,"",%progbits
 344              	.Ldebug_info0:
 345 0000 450B0000 		.4byte	0xb45
 346 0004 0400     		.2byte	0x4
 347 0006 00000000 		.4byte	.Ldebug_abbrev0
 348 000a 04       		.byte	0x4
 349 000b 01       		.uleb128 0x1
 350 000c 49020000 		.4byte	.LASF156
 351 0010 0C       		.byte	0xc
 352 0011 41000000 		.4byte	.LASF157
 353 0015 A4040000 		.4byte	.LASF158
 354 0019 00000000 		.4byte	.Ldebug_ranges0+0
 355 001d 00000000 		.4byte	0
 356 0021 00000000 		.4byte	.Ldebug_line0
 357 0025 02       		.uleb128 0x2
 358 0026 01       		.byte	0x1
 359 0027 06       		.byte	0x6
 360 0028 44010000 		.4byte	.LASF0
 361 002c 03       		.uleb128 0x3
 362 002d 4D000000 		.4byte	.LASF2
 363 0031 02       		.byte	0x2
 364 0032 2B       		.byte	0x2b
 365 0033 37000000 		.4byte	0x37
 366 0037 02       		.uleb128 0x2
 367 0038 01       		.byte	0x1
 368 0039 08       		.byte	0x8
 369 003a 85050000 		.4byte	.LASF1
 370 003e 03       		.uleb128 0x3
 371 003f F3010000 		.4byte	.LASF3
 372 0043 02       		.byte	0x2
 373 0044 37       		.byte	0x37
 374 0045 49000000 		.4byte	0x49
 375 0049 02       		.uleb128 0x2
 376 004a 02       		.byte	0x2
 377 004b 05       		.byte	0x5
 378 004c AA050000 		.4byte	.LASF4
 379 0050 02       		.uleb128 0x2
 380 0051 02       		.byte	0x2
 381 0052 07       		.byte	0x7
 382 0053 EA030000 		.4byte	.LASF5
 383 0057 02       		.uleb128 0x2
 384 0058 04       		.byte	0x4
 385 0059 05       		.byte	0x5
 386 005a 89010000 		.4byte	.LASF6
 387 005e 02       		.uleb128 0x2
 388 005f 04       		.byte	0x4
 389 0060 07       		.byte	0x7
 390 0061 A4030000 		.4byte	.LASF7
 391 0065 02       		.uleb128 0x2
 392 0066 08       		.byte	0x8
 393 0067 05       		.byte	0x5
 394 0068 36010000 		.4byte	.LASF8
 395 006c 02       		.uleb128 0x2
 396 006d 08       		.byte	0x8
 397 006e 07       		.byte	0x7
 398 006f C9000000 		.4byte	.LASF9
 399 0073 04       		.uleb128 0x4
ARM GAS  C:\Users\SALMAC~1\AppData\Local\Temp\ccqMZLdK.s 			page 8


 400 0074 04       		.byte	0x4
 401 0075 05       		.byte	0x5
 402 0076 696E7400 		.ascii	"int\000"
 403 007a 02       		.uleb128 0x2
 404 007b 04       		.byte	0x4
 405 007c 07       		.byte	0x7
 406 007d 3C020000 		.4byte	.LASF10
 407 0081 02       		.uleb128 0x2
 408 0082 08       		.byte	0x8
 409 0083 04       		.byte	0x4
 410 0084 78040000 		.4byte	.LASF11
 411 0088 05       		.uleb128 0x5
 412 0089 04       		.byte	0x4
 413 008a 03       		.uleb128 0x3
 414 008b 2D040000 		.4byte	.LASF12
 415 008f 03       		.byte	0x3
 416 0090 22       		.byte	0x22
 417 0091 95000000 		.4byte	0x95
 418 0095 06       		.uleb128 0x6
 419 0096 04       		.byte	0x4
 420 0097 9B000000 		.4byte	0x9b
 421 009b 07       		.uleb128 0x7
 422 009c 74060000 		.4byte	.LASF119
 423 00a0 03       		.uleb128 0x3
 424 00a1 24050000 		.4byte	.LASF13
 425 00a5 04       		.byte	0x4
 426 00a6 2C       		.byte	0x2c
 427 00a7 57000000 		.4byte	0x57
 428 00ab 03       		.uleb128 0x3
 429 00ac AD060000 		.4byte	.LASF14
 430 00b0 04       		.byte	0x4
 431 00b1 72       		.byte	0x72
 432 00b2 57000000 		.4byte	0x57
 433 00b6 08       		.uleb128 0x8
 434 00b7 35040000 		.4byte	.LASF15
 435 00bb 05       		.byte	0x5
 436 00bc 6501     		.2byte	0x165
 437 00be 7A000000 		.4byte	0x7a
 438 00c2 09       		.uleb128 0x9
 439 00c3 04       		.byte	0x4
 440 00c4 04       		.byte	0x4
 441 00c5 A6       		.byte	0xa6
 442 00c6 E1000000 		.4byte	0xe1
 443 00ca 0A       		.uleb128 0xa
 444 00cb 27040000 		.4byte	.LASF16
 445 00cf 04       		.byte	0x4
 446 00d0 A8       		.byte	0xa8
 447 00d1 B6000000 		.4byte	0xb6
 448 00d5 0A       		.uleb128 0xa
 449 00d6 8D030000 		.4byte	.LASF17
 450 00da 04       		.byte	0x4
 451 00db A9       		.byte	0xa9
 452 00dc E1000000 		.4byte	0xe1
 453 00e0 00       		.byte	0
 454 00e1 0B       		.uleb128 0xb
 455 00e2 37000000 		.4byte	0x37
 456 00e6 F1000000 		.4byte	0xf1
ARM GAS  C:\Users\SALMAC~1\AppData\Local\Temp\ccqMZLdK.s 			page 9


 457 00ea 0C       		.uleb128 0xc
 458 00eb 7A000000 		.4byte	0x7a
 459 00ef 03       		.byte	0x3
 460 00f0 00       		.byte	0
 461 00f1 0D       		.uleb128 0xd
 462 00f2 08       		.byte	0x8
 463 00f3 04       		.byte	0x4
 464 00f4 A3       		.byte	0xa3
 465 00f5 12010000 		.4byte	0x112
 466 00f9 0E       		.uleb128 0xe
 467 00fa 6C060000 		.4byte	.LASF18
 468 00fe 04       		.byte	0x4
 469 00ff A5       		.byte	0xa5
 470 0100 73000000 		.4byte	0x73
 471 0104 00       		.byte	0
 472 0105 0E       		.uleb128 0xe
 473 0106 7B060000 		.4byte	.LASF19
 474 010a 04       		.byte	0x4
 475 010b AA       		.byte	0xaa
 476 010c C2000000 		.4byte	0xc2
 477 0110 04       		.byte	0x4
 478 0111 00       		.byte	0
 479 0112 03       		.uleb128 0x3
 480 0113 D2050000 		.4byte	.LASF20
 481 0117 04       		.byte	0x4
 482 0118 AB       		.byte	0xab
 483 0119 F1000000 		.4byte	0xf1
 484 011d 03       		.uleb128 0x3
 485 011e 68070000 		.4byte	.LASF21
 486 0122 04       		.byte	0x4
 487 0123 AF       		.byte	0xaf
 488 0124 8A000000 		.4byte	0x8a
 489 0128 03       		.uleb128 0x3
 490 0129 0E070000 		.4byte	.LASF22
 491 012d 06       		.byte	0x6
 492 012e 16       		.byte	0x16
 493 012f 5E000000 		.4byte	0x5e
 494 0133 0F       		.uleb128 0xf
 495 0134 05020000 		.4byte	.LASF27
 496 0138 18       		.byte	0x18
 497 0139 06       		.byte	0x6
 498 013a 2F       		.byte	0x2f
 499 013b 86010000 		.4byte	0x186
 500 013f 0E       		.uleb128 0xe
 501 0140 D8060000 		.4byte	.LASF23
 502 0144 06       		.byte	0x6
 503 0145 31       		.byte	0x31
 504 0146 86010000 		.4byte	0x186
 505 014a 00       		.byte	0
 506 014b 10       		.uleb128 0x10
 507 014c 5F6B00   		.ascii	"_k\000"
 508 014f 06       		.byte	0x6
 509 0150 32       		.byte	0x32
 510 0151 73000000 		.4byte	0x73
 511 0155 04       		.byte	0x4
 512 0156 0E       		.uleb128 0xe
 513 0157 57060000 		.4byte	.LASF24
ARM GAS  C:\Users\SALMAC~1\AppData\Local\Temp\ccqMZLdK.s 			page 10


 514 015b 06       		.byte	0x6
 515 015c 32       		.byte	0x32
 516 015d 73000000 		.4byte	0x73
 517 0161 08       		.byte	0x8
 518 0162 0E       		.uleb128 0xe
 519 0163 ED010000 		.4byte	.LASF25
 520 0167 06       		.byte	0x6
 521 0168 32       		.byte	0x32
 522 0169 73000000 		.4byte	0x73
 523 016d 0C       		.byte	0xc
 524 016e 0E       		.uleb128 0xe
 525 016f 36070000 		.4byte	.LASF26
 526 0173 06       		.byte	0x6
 527 0174 32       		.byte	0x32
 528 0175 73000000 		.4byte	0x73
 529 0179 10       		.byte	0x10
 530 017a 10       		.uleb128 0x10
 531 017b 5F7800   		.ascii	"_x\000"
 532 017e 06       		.byte	0x6
 533 017f 33       		.byte	0x33
 534 0180 8C010000 		.4byte	0x18c
 535 0184 14       		.byte	0x14
 536 0185 00       		.byte	0
 537 0186 06       		.uleb128 0x6
 538 0187 04       		.byte	0x4
 539 0188 33010000 		.4byte	0x133
 540 018c 0B       		.uleb128 0xb
 541 018d 28010000 		.4byte	0x128
 542 0191 9C010000 		.4byte	0x19c
 543 0195 0C       		.uleb128 0xc
 544 0196 7A000000 		.4byte	0x7a
 545 019a 00       		.byte	0
 546 019b 00       		.byte	0
 547 019c 0F       		.uleb128 0xf
 548 019d 37020000 		.4byte	.LASF28
 549 01a1 24       		.byte	0x24
 550 01a2 06       		.byte	0x6
 551 01a3 37       		.byte	0x37
 552 01a4 15020000 		.4byte	0x215
 553 01a8 0E       		.uleb128 0xe
 554 01a9 25010000 		.4byte	.LASF29
 555 01ad 06       		.byte	0x6
 556 01ae 39       		.byte	0x39
 557 01af 73000000 		.4byte	0x73
 558 01b3 00       		.byte	0
 559 01b4 0E       		.uleb128 0xe
 560 01b5 C1060000 		.4byte	.LASF30
 561 01b9 06       		.byte	0x6
 562 01ba 3A       		.byte	0x3a
 563 01bb 73000000 		.4byte	0x73
 564 01bf 04       		.byte	0x4
 565 01c0 0E       		.uleb128 0xe
 566 01c1 5C010000 		.4byte	.LASF31
 567 01c5 06       		.byte	0x6
 568 01c6 3B       		.byte	0x3b
 569 01c7 73000000 		.4byte	0x73
 570 01cb 08       		.byte	0x8
ARM GAS  C:\Users\SALMAC~1\AppData\Local\Temp\ccqMZLdK.s 			page 11


 571 01cc 0E       		.uleb128 0xe
 572 01cd F6070000 		.4byte	.LASF32
 573 01d1 06       		.byte	0x6
 574 01d2 3C       		.byte	0x3c
 575 01d3 73000000 		.4byte	0x73
 576 01d7 0C       		.byte	0xc
 577 01d8 0E       		.uleb128 0xe
 578 01d9 9B040000 		.4byte	.LASF33
 579 01dd 06       		.byte	0x6
 580 01de 3D       		.byte	0x3d
 581 01df 73000000 		.4byte	0x73
 582 01e3 10       		.byte	0x10
 583 01e4 0E       		.uleb128 0xe
 584 01e5 6E040000 		.4byte	.LASF34
 585 01e9 06       		.byte	0x6
 586 01ea 3E       		.byte	0x3e
 587 01eb 73000000 		.4byte	0x73
 588 01ef 14       		.byte	0x14
 589 01f0 0E       		.uleb128 0xe
 590 01f1 3B070000 		.4byte	.LASF35
 591 01f5 06       		.byte	0x6
 592 01f6 3F       		.byte	0x3f
 593 01f7 73000000 		.4byte	0x73
 594 01fb 18       		.byte	0x18
 595 01fc 0E       		.uleb128 0xe
 596 01fd B4050000 		.4byte	.LASF36
 597 0201 06       		.byte	0x6
 598 0202 40       		.byte	0x40
 599 0203 73000000 		.4byte	0x73
 600 0207 1C       		.byte	0x1c
 601 0208 0E       		.uleb128 0xe
 602 0209 7F070000 		.4byte	.LASF37
 603 020d 06       		.byte	0x6
 604 020e 41       		.byte	0x41
 605 020f 73000000 		.4byte	0x73
 606 0213 20       		.byte	0x20
 607 0214 00       		.byte	0
 608 0215 11       		.uleb128 0x11
 609 0216 6B010000 		.4byte	.LASF38
 610 021a 0801     		.2byte	0x108
 611 021c 06       		.byte	0x6
 612 021d 4A       		.byte	0x4a
 613 021e 55020000 		.4byte	0x255
 614 0222 0E       		.uleb128 0xe
 615 0223 E0010000 		.4byte	.LASF39
 616 0227 06       		.byte	0x6
 617 0228 4B       		.byte	0x4b
 618 0229 55020000 		.4byte	0x255
 619 022d 00       		.byte	0
 620 022e 0E       		.uleb128 0xe
 621 022f 00000000 		.4byte	.LASF40
 622 0233 06       		.byte	0x6
 623 0234 4C       		.byte	0x4c
 624 0235 55020000 		.4byte	0x255
 625 0239 80       		.byte	0x80
 626 023a 12       		.uleb128 0x12
 627 023b EB060000 		.4byte	.LASF41
ARM GAS  C:\Users\SALMAC~1\AppData\Local\Temp\ccqMZLdK.s 			page 12


 628 023f 06       		.byte	0x6
 629 0240 4E       		.byte	0x4e
 630 0241 28010000 		.4byte	0x128
 631 0245 0001     		.2byte	0x100
 632 0247 12       		.uleb128 0x12
 633 0248 99010000 		.4byte	.LASF42
 634 024c 06       		.byte	0x6
 635 024d 51       		.byte	0x51
 636 024e 28010000 		.4byte	0x128
 637 0252 0401     		.2byte	0x104
 638 0254 00       		.byte	0
 639 0255 0B       		.uleb128 0xb
 640 0256 88000000 		.4byte	0x88
 641 025a 65020000 		.4byte	0x265
 642 025e 0C       		.uleb128 0xc
 643 025f 7A000000 		.4byte	0x7a
 644 0263 1F       		.byte	0x1f
 645 0264 00       		.byte	0
 646 0265 11       		.uleb128 0x11
 647 0266 07050000 		.4byte	.LASF43
 648 026a 9001     		.2byte	0x190
 649 026c 06       		.byte	0x6
 650 026d 5D       		.byte	0x5d
 651 026e A3020000 		.4byte	0x2a3
 652 0272 0E       		.uleb128 0xe
 653 0273 D8060000 		.4byte	.LASF23
 654 0277 06       		.byte	0x6
 655 0278 5E       		.byte	0x5e
 656 0279 A3020000 		.4byte	0x2a3
 657 027d 00       		.byte	0
 658 027e 0E       		.uleb128 0xe
 659 027f 0B060000 		.4byte	.LASF44
 660 0283 06       		.byte	0x6
 661 0284 5F       		.byte	0x5f
 662 0285 73000000 		.4byte	0x73
 663 0289 04       		.byte	0x4
 664 028a 0E       		.uleb128 0xe
 665 028b E8010000 		.4byte	.LASF45
 666 028f 06       		.byte	0x6
 667 0290 61       		.byte	0x61
 668 0291 A9020000 		.4byte	0x2a9
 669 0295 08       		.byte	0x8
 670 0296 0E       		.uleb128 0xe
 671 0297 6B010000 		.4byte	.LASF38
 672 029b 06       		.byte	0x6
 673 029c 62       		.byte	0x62
 674 029d 15020000 		.4byte	0x215
 675 02a1 88       		.byte	0x88
 676 02a2 00       		.byte	0
 677 02a3 06       		.uleb128 0x6
 678 02a4 04       		.byte	0x4
 679 02a5 65020000 		.4byte	0x265
 680 02a9 0B       		.uleb128 0xb
 681 02aa B9020000 		.4byte	0x2b9
 682 02ae B9020000 		.4byte	0x2b9
 683 02b2 0C       		.uleb128 0xc
 684 02b3 7A000000 		.4byte	0x7a
ARM GAS  C:\Users\SALMAC~1\AppData\Local\Temp\ccqMZLdK.s 			page 13


 685 02b7 1F       		.byte	0x1f
 686 02b8 00       		.byte	0
 687 02b9 06       		.uleb128 0x6
 688 02ba 04       		.byte	0x4
 689 02bb BF020000 		.4byte	0x2bf
 690 02bf 13       		.uleb128 0x13
 691 02c0 0F       		.uleb128 0xf
 692 02c1 BE050000 		.4byte	.LASF46
 693 02c5 08       		.byte	0x8
 694 02c6 06       		.byte	0x6
 695 02c7 75       		.byte	0x75
 696 02c8 E5020000 		.4byte	0x2e5
 697 02cc 0E       		.uleb128 0xe
 698 02cd 56010000 		.4byte	.LASF47
 699 02d1 06       		.byte	0x6
 700 02d2 76       		.byte	0x76
 701 02d3 E5020000 		.4byte	0x2e5
 702 02d7 00       		.byte	0
 703 02d8 0E       		.uleb128 0xe
 704 02d9 18000000 		.4byte	.LASF48
 705 02dd 06       		.byte	0x6
 706 02de 77       		.byte	0x77
 707 02df 73000000 		.4byte	0x73
 708 02e3 04       		.byte	0x4
 709 02e4 00       		.byte	0
 710 02e5 06       		.uleb128 0x6
 711 02e6 04       		.byte	0x4
 712 02e7 37000000 		.4byte	0x37
 713 02eb 0F       		.uleb128 0xf
 714 02ec DD050000 		.4byte	.LASF49
 715 02f0 68       		.byte	0x68
 716 02f1 06       		.byte	0x6
 717 02f2 B5       		.byte	0xb5
 718 02f3 15040000 		.4byte	0x415
 719 02f7 10       		.uleb128 0x10
 720 02f8 5F7000   		.ascii	"_p\000"
 721 02fb 06       		.byte	0x6
 722 02fc B6       		.byte	0xb6
 723 02fd E5020000 		.4byte	0x2e5
 724 0301 00       		.byte	0
 725 0302 10       		.uleb128 0x10
 726 0303 5F7200   		.ascii	"_r\000"
 727 0306 06       		.byte	0x6
 728 0307 B7       		.byte	0xb7
 729 0308 73000000 		.4byte	0x73
 730 030c 04       		.byte	0x4
 731 030d 10       		.uleb128 0x10
 732 030e 5F7700   		.ascii	"_w\000"
 733 0311 06       		.byte	0x6
 734 0312 B8       		.byte	0xb8
 735 0313 73000000 		.4byte	0x73
 736 0317 08       		.byte	0x8
 737 0318 0E       		.uleb128 0xe
 738 0319 92010000 		.4byte	.LASF50
 739 031d 06       		.byte	0x6
 740 031e B9       		.byte	0xb9
 741 031f 49000000 		.4byte	0x49
ARM GAS  C:\Users\SALMAC~1\AppData\Local\Temp\ccqMZLdK.s 			page 14


 742 0323 0C       		.byte	0xc
 743 0324 0E       		.uleb128 0xe
 744 0325 B6030000 		.4byte	.LASF51
 745 0329 06       		.byte	0x6
 746 032a BA       		.byte	0xba
 747 032b 49000000 		.4byte	0x49
 748 032f 0E       		.byte	0xe
 749 0330 10       		.uleb128 0x10
 750 0331 5F626600 		.ascii	"_bf\000"
 751 0335 06       		.byte	0x6
 752 0336 BB       		.byte	0xbb
 753 0337 C0020000 		.4byte	0x2c0
 754 033b 10       		.byte	0x10
 755 033c 0E       		.uleb128 0xe
 756 033d EA000000 		.4byte	.LASF52
 757 0341 06       		.byte	0x6
 758 0342 BC       		.byte	0xbc
 759 0343 73000000 		.4byte	0x73
 760 0347 18       		.byte	0x18
 761 0348 0E       		.uleb128 0xe
 762 0349 79010000 		.4byte	.LASF53
 763 034d 06       		.byte	0x6
 764 034e C3       		.byte	0xc3
 765 034f 88000000 		.4byte	0x88
 766 0353 1C       		.byte	0x1c
 767 0354 0E       		.uleb128 0xe
 768 0355 27020000 		.4byte	.LASF54
 769 0359 06       		.byte	0x6
 770 035a C5       		.byte	0xc5
 771 035b 82050000 		.4byte	0x582
 772 035f 20       		.byte	0x20
 773 0360 0E       		.uleb128 0xe
 774 0361 67040000 		.4byte	.LASF55
 775 0365 06       		.byte	0x6
 776 0366 C7       		.byte	0xc7
 777 0367 AC050000 		.4byte	0x5ac
 778 036b 24       		.byte	0x24
 779 036c 0E       		.uleb128 0xe
 780 036d 83060000 		.4byte	.LASF56
 781 0371 06       		.byte	0x6
 782 0372 CA       		.byte	0xca
 783 0373 D0050000 		.4byte	0x5d0
 784 0377 28       		.byte	0x28
 785 0378 0E       		.uleb128 0xe
 786 0379 99070000 		.4byte	.LASF57
 787 037d 06       		.byte	0x6
 788 037e CB       		.byte	0xcb
 789 037f EA050000 		.4byte	0x5ea
 790 0383 2C       		.byte	0x2c
 791 0384 10       		.uleb128 0x10
 792 0385 5F756200 		.ascii	"_ub\000"
 793 0389 06       		.byte	0x6
 794 038a CE       		.byte	0xce
 795 038b C0020000 		.4byte	0x2c0
 796 038f 30       		.byte	0x30
 797 0390 10       		.uleb128 0x10
 798 0391 5F757000 		.ascii	"_up\000"
ARM GAS  C:\Users\SALMAC~1\AppData\Local\Temp\ccqMZLdK.s 			page 15


 799 0395 06       		.byte	0x6
 800 0396 CF       		.byte	0xcf
 801 0397 E5020000 		.4byte	0x2e5
 802 039b 38       		.byte	0x38
 803 039c 10       		.uleb128 0x10
 804 039d 5F757200 		.ascii	"_ur\000"
 805 03a1 06       		.byte	0x6
 806 03a2 D0       		.byte	0xd0
 807 03a3 73000000 		.4byte	0x73
 808 03a7 3C       		.byte	0x3c
 809 03a8 0E       		.uleb128 0xe
 810 03a9 50010000 		.4byte	.LASF58
 811 03ad 06       		.byte	0x6
 812 03ae D3       		.byte	0xd3
 813 03af F0050000 		.4byte	0x5f0
 814 03b3 40       		.byte	0x40
 815 03b4 0E       		.uleb128 0xe
 816 03b5 71070000 		.4byte	.LASF59
 817 03b9 06       		.byte	0x6
 818 03ba D4       		.byte	0xd4
 819 03bb 00060000 		.4byte	0x600
 820 03bf 43       		.byte	0x43
 821 03c0 10       		.uleb128 0x10
 822 03c1 5F6C6200 		.ascii	"_lb\000"
 823 03c5 06       		.byte	0x6
 824 03c6 D7       		.byte	0xd7
 825 03c7 C0020000 		.4byte	0x2c0
 826 03cb 44       		.byte	0x44
 827 03cc 0E       		.uleb128 0xe
 828 03cd A8010000 		.4byte	.LASF60
 829 03d1 06       		.byte	0x6
 830 03d2 DA       		.byte	0xda
 831 03d3 73000000 		.4byte	0x73
 832 03d7 4C       		.byte	0x4c
 833 03d8 0E       		.uleb128 0xe
 834 03d9 B9010000 		.4byte	.LASF61
 835 03dd 06       		.byte	0x6
 836 03de DB       		.byte	0xdb
 837 03df A0000000 		.4byte	0xa0
 838 03e3 50       		.byte	0x50
 839 03e4 0E       		.uleb128 0xe
 840 03e5 89000000 		.4byte	.LASF62
 841 03e9 06       		.byte	0x6
 842 03ea DE       		.byte	0xde
 843 03eb 33040000 		.4byte	0x433
 844 03ef 54       		.byte	0x54
 845 03f0 0E       		.uleb128 0xe
 846 03f1 3C040000 		.4byte	.LASF63
 847 03f5 06       		.byte	0x6
 848 03f6 E2       		.byte	0xe2
 849 03f7 1D010000 		.4byte	0x11d
 850 03fb 58       		.byte	0x58
 851 03fc 0E       		.uleb128 0xe
 852 03fd E5050000 		.4byte	.LASF64
 853 0401 06       		.byte	0x6
 854 0402 E4       		.byte	0xe4
 855 0403 12010000 		.4byte	0x112
ARM GAS  C:\Users\SALMAC~1\AppData\Local\Temp\ccqMZLdK.s 			page 16


 856 0407 5C       		.byte	0x5c
 857 0408 0E       		.uleb128 0xe
 858 0409 42040000 		.4byte	.LASF65
 859 040d 06       		.byte	0x6
 860 040e E5       		.byte	0xe5
 861 040f 73000000 		.4byte	0x73
 862 0413 64       		.byte	0x64
 863 0414 00       		.byte	0
 864 0415 14       		.uleb128 0x14
 865 0416 73000000 		.4byte	0x73
 866 041a 33040000 		.4byte	0x433
 867 041e 15       		.uleb128 0x15
 868 041f 33040000 		.4byte	0x433
 869 0423 15       		.uleb128 0x15
 870 0424 88000000 		.4byte	0x88
 871 0428 15       		.uleb128 0x15
 872 0429 70050000 		.4byte	0x570
 873 042d 15       		.uleb128 0x15
 874 042e 73000000 		.4byte	0x73
 875 0432 00       		.byte	0
 876 0433 06       		.uleb128 0x6
 877 0434 04       		.byte	0x4
 878 0435 3E040000 		.4byte	0x43e
 879 0439 16       		.uleb128 0x16
 880 043a 33040000 		.4byte	0x433
 881 043e 17       		.uleb128 0x17
 882 043f 5F060000 		.4byte	.LASF66
 883 0443 2804     		.2byte	0x428
 884 0445 06       		.byte	0x6
 885 0446 3902     		.2byte	0x239
 886 0448 70050000 		.4byte	0x570
 887 044c 18       		.uleb128 0x18
 888 044d B5060000 		.4byte	.LASF67
 889 0451 06       		.byte	0x6
 890 0452 3B02     		.2byte	0x23b
 891 0454 73000000 		.4byte	0x73
 892 0458 00       		.byte	0
 893 0459 18       		.uleb128 0x18
 894 045a A1010000 		.4byte	.LASF68
 895 045e 06       		.byte	0x6
 896 045f 4002     		.2byte	0x240
 897 0461 57060000 		.4byte	0x657
 898 0465 04       		.byte	0x4
 899 0466 18       		.uleb128 0x18
 900 0467 94030000 		.4byte	.LASF69
 901 046b 06       		.byte	0x6
 902 046c 4002     		.2byte	0x240
 903 046e 57060000 		.4byte	0x657
 904 0472 08       		.byte	0x8
 905 0473 18       		.uleb128 0x18
 906 0474 FD010000 		.4byte	.LASF70
 907 0478 06       		.byte	0x6
 908 0479 4002     		.2byte	0x240
 909 047b 57060000 		.4byte	0x657
 910 047f 0C       		.byte	0xc
 911 0480 18       		.uleb128 0x18
 912 0481 06060000 		.4byte	.LASF71
ARM GAS  C:\Users\SALMAC~1\AppData\Local\Temp\ccqMZLdK.s 			page 17


 913 0485 06       		.byte	0x6
 914 0486 4202     		.2byte	0x242
 915 0488 73000000 		.4byte	0x73
 916 048c 10       		.byte	0x10
 917 048d 18       		.uleb128 0x18
 918 048e 36000000 		.4byte	.LASF72
 919 0492 06       		.byte	0x6
 920 0493 4302     		.2byte	0x243
 921 0495 39080000 		.4byte	0x839
 922 0499 14       		.byte	0x14
 923 049a 18       		.uleb128 0x18
 924 049b 2D060000 		.4byte	.LASF73
 925 049f 06       		.byte	0x6
 926 04a0 4602     		.2byte	0x246
 927 04a2 73000000 		.4byte	0x73
 928 04a6 30       		.byte	0x30
 929 04a7 18       		.uleb128 0x18
 930 04a8 1B060000 		.4byte	.LASF74
 931 04ac 06       		.byte	0x6
 932 04ad 4702     		.2byte	0x247
 933 04af 4E080000 		.4byte	0x84e
 934 04b3 34       		.byte	0x34
 935 04b4 18       		.uleb128 0x18
 936 04b5 19050000 		.4byte	.LASF75
 937 04b9 06       		.byte	0x6
 938 04ba 4902     		.2byte	0x249
 939 04bc 73000000 		.4byte	0x73
 940 04c0 38       		.byte	0x38
 941 04c1 18       		.uleb128 0x18
 942 04c2 23060000 		.4byte	.LASF76
 943 04c6 06       		.byte	0x6
 944 04c7 4B02     		.2byte	0x24b
 945 04c9 5F080000 		.4byte	0x85f
 946 04cd 3C       		.byte	0x3c
 947 04ce 18       		.uleb128 0x18
 948 04cf 1F040000 		.4byte	.LASF77
 949 04d3 06       		.byte	0x6
 950 04d4 4E02     		.2byte	0x24e
 951 04d6 86010000 		.4byte	0x186
 952 04da 40       		.byte	0x40
 953 04db 18       		.uleb128 0x18
 954 04dc 2D020000 		.4byte	.LASF78
 955 04e0 06       		.byte	0x6
 956 04e1 4F02     		.2byte	0x24f
 957 04e3 73000000 		.4byte	0x73
 958 04e7 44       		.byte	0x44
 959 04e8 18       		.uleb128 0x18
 960 04e9 BD070000 		.4byte	.LASF79
 961 04ed 06       		.byte	0x6
 962 04ee 5002     		.2byte	0x250
 963 04f0 86010000 		.4byte	0x186
 964 04f4 48       		.byte	0x48
 965 04f5 18       		.uleb128 0x18
 966 04f6 3F050000 		.4byte	.LASF80
 967 04fa 06       		.byte	0x6
 968 04fb 5102     		.2byte	0x251
 969 04fd 65080000 		.4byte	0x865
ARM GAS  C:\Users\SALMAC~1\AppData\Local\Temp\ccqMZLdK.s 			page 18


 970 0501 4C       		.byte	0x4c
 971 0502 18       		.uleb128 0x18
 972 0503 9C030000 		.4byte	.LASF81
 973 0507 06       		.byte	0x6
 974 0508 5402     		.2byte	0x254
 975 050a 73000000 		.4byte	0x73
 976 050e 50       		.byte	0x50
 977 050f 18       		.uleb128 0x18
 978 0510 B1010000 		.4byte	.LASF82
 979 0514 06       		.byte	0x6
 980 0515 5502     		.2byte	0x255
 981 0517 70050000 		.4byte	0x570
 982 051b 54       		.byte	0x54
 983 051c 18       		.uleb128 0x18
 984 051d 93050000 		.4byte	.LASF83
 985 0521 06       		.byte	0x6
 986 0522 7802     		.2byte	0x278
 987 0524 17080000 		.4byte	0x817
 988 0528 58       		.byte	0x58
 989 0529 19       		.uleb128 0x19
 990 052a 07050000 		.4byte	.LASF43
 991 052e 06       		.byte	0x6
 992 052f 7C02     		.2byte	0x27c
 993 0531 A3020000 		.4byte	0x2a3
 994 0535 4801     		.2byte	0x148
 995 0537 19       		.uleb128 0x19
 996 0538 FD030000 		.4byte	.LASF84
 997 053c 06       		.byte	0x6
 998 053d 7D02     		.2byte	0x27d
 999 053f 65020000 		.4byte	0x265
 1000 0543 4C01     		.2byte	0x14c
 1001 0545 19       		.uleb128 0x19
 1002 0546 5E070000 		.4byte	.LASF85
 1003 054a 06       		.byte	0x6
 1004 054b 8102     		.2byte	0x281
 1005 054d 76080000 		.4byte	0x876
 1006 0551 DC02     		.2byte	0x2dc
 1007 0553 19       		.uleb128 0x19
 1008 0554 81010000 		.4byte	.LASF86
 1009 0558 06       		.byte	0x6
 1010 0559 8602     		.2byte	0x286
 1011 055b 1C060000 		.4byte	0x61c
 1012 055f E002     		.2byte	0x2e0
 1013 0561 19       		.uleb128 0x19
 1014 0562 66010000 		.4byte	.LASF87
 1015 0566 06       		.byte	0x6
 1016 0567 8802     		.2byte	0x288
 1017 0569 82080000 		.4byte	0x882
 1018 056d EC02     		.2byte	0x2ec
 1019 056f 00       		.byte	0
 1020 0570 06       		.uleb128 0x6
 1021 0571 04       		.byte	0x4
 1022 0572 76050000 		.4byte	0x576
 1023 0576 02       		.uleb128 0x2
 1024 0577 01       		.byte	0x1
 1025 0578 08       		.byte	0x8
 1026 0579 BC060000 		.4byte	.LASF88
ARM GAS  C:\Users\SALMAC~1\AppData\Local\Temp\ccqMZLdK.s 			page 19


 1027 057d 16       		.uleb128 0x16
 1028 057e 76050000 		.4byte	0x576
 1029 0582 06       		.uleb128 0x6
 1030 0583 04       		.byte	0x4
 1031 0584 15040000 		.4byte	0x415
 1032 0588 14       		.uleb128 0x14
 1033 0589 73000000 		.4byte	0x73
 1034 058d A6050000 		.4byte	0x5a6
 1035 0591 15       		.uleb128 0x15
 1036 0592 33040000 		.4byte	0x433
 1037 0596 15       		.uleb128 0x15
 1038 0597 88000000 		.4byte	0x88
 1039 059b 15       		.uleb128 0x15
 1040 059c A6050000 		.4byte	0x5a6
 1041 05a0 15       		.uleb128 0x15
 1042 05a1 73000000 		.4byte	0x73
 1043 05a5 00       		.byte	0
 1044 05a6 06       		.uleb128 0x6
 1045 05a7 04       		.byte	0x4
 1046 05a8 7D050000 		.4byte	0x57d
 1047 05ac 06       		.uleb128 0x6
 1048 05ad 04       		.byte	0x4
 1049 05ae 88050000 		.4byte	0x588
 1050 05b2 14       		.uleb128 0x14
 1051 05b3 AB000000 		.4byte	0xab
 1052 05b7 D0050000 		.4byte	0x5d0
 1053 05bb 15       		.uleb128 0x15
 1054 05bc 33040000 		.4byte	0x433
 1055 05c0 15       		.uleb128 0x15
 1056 05c1 88000000 		.4byte	0x88
 1057 05c5 15       		.uleb128 0x15
 1058 05c6 AB000000 		.4byte	0xab
 1059 05ca 15       		.uleb128 0x15
 1060 05cb 73000000 		.4byte	0x73
 1061 05cf 00       		.byte	0
 1062 05d0 06       		.uleb128 0x6
 1063 05d1 04       		.byte	0x4
 1064 05d2 B2050000 		.4byte	0x5b2
 1065 05d6 14       		.uleb128 0x14
 1066 05d7 73000000 		.4byte	0x73
 1067 05db EA050000 		.4byte	0x5ea
 1068 05df 15       		.uleb128 0x15
 1069 05e0 33040000 		.4byte	0x433
 1070 05e4 15       		.uleb128 0x15
 1071 05e5 88000000 		.4byte	0x88
 1072 05e9 00       		.byte	0
 1073 05ea 06       		.uleb128 0x6
 1074 05eb 04       		.byte	0x4
 1075 05ec D6050000 		.4byte	0x5d6
 1076 05f0 0B       		.uleb128 0xb
 1077 05f1 37000000 		.4byte	0x37
 1078 05f5 00060000 		.4byte	0x600
 1079 05f9 0C       		.uleb128 0xc
 1080 05fa 7A000000 		.4byte	0x7a
 1081 05fe 02       		.byte	0x2
 1082 05ff 00       		.byte	0
 1083 0600 0B       		.uleb128 0xb
ARM GAS  C:\Users\SALMAC~1\AppData\Local\Temp\ccqMZLdK.s 			page 20


 1084 0601 37000000 		.4byte	0x37
 1085 0605 10060000 		.4byte	0x610
 1086 0609 0C       		.uleb128 0xc
 1087 060a 7A000000 		.4byte	0x7a
 1088 060e 00       		.byte	0
 1089 060f 00       		.byte	0
 1090 0610 08       		.uleb128 0x8
 1091 0611 CB050000 		.4byte	.LASF89
 1092 0615 06       		.byte	0x6
 1093 0616 1F01     		.2byte	0x11f
 1094 0618 EB020000 		.4byte	0x2eb
 1095 061c 1A       		.uleb128 0x1a
 1096 061d 45070000 		.4byte	.LASF90
 1097 0621 0C       		.byte	0xc
 1098 0622 06       		.byte	0x6
 1099 0623 2301     		.2byte	0x123
 1100 0625 51060000 		.4byte	0x651
 1101 0629 18       		.uleb128 0x18
 1102 062a D8060000 		.4byte	.LASF23
 1103 062e 06       		.byte	0x6
 1104 062f 2501     		.2byte	0x125
 1105 0631 51060000 		.4byte	0x651
 1106 0635 00       		.byte	0
 1107 0636 18       		.uleb128 0x18
 1108 0637 E3030000 		.4byte	.LASF91
 1109 063b 06       		.byte	0x6
 1110 063c 2601     		.2byte	0x126
 1111 063e 73000000 		.4byte	0x73
 1112 0642 04       		.byte	0x4
 1113 0643 18       		.uleb128 0x18
 1114 0644 C5050000 		.4byte	.LASF92
 1115 0648 06       		.byte	0x6
 1116 0649 2701     		.2byte	0x127
 1117 064b 57060000 		.4byte	0x657
 1118 064f 08       		.byte	0x8
 1119 0650 00       		.byte	0
 1120 0651 06       		.uleb128 0x6
 1121 0652 04       		.byte	0x4
 1122 0653 1C060000 		.4byte	0x61c
 1123 0657 06       		.uleb128 0x6
 1124 0658 04       		.byte	0x4
 1125 0659 10060000 		.4byte	0x610
 1126 065d 1A       		.uleb128 0x1a
 1127 065e 1E000000 		.4byte	.LASF93
 1128 0662 0E       		.byte	0xe
 1129 0663 06       		.byte	0x6
 1130 0664 3F01     		.2byte	0x13f
 1131 0666 92060000 		.4byte	0x692
 1132 066a 18       		.uleb128 0x18
 1133 066b 66060000 		.4byte	.LASF94
 1134 066f 06       		.byte	0x6
 1135 0670 4001     		.2byte	0x140
 1136 0672 92060000 		.4byte	0x692
 1137 0676 00       		.byte	0
 1138 0677 18       		.uleb128 0x18
 1139 0678 D2060000 		.4byte	.LASF95
 1140 067c 06       		.byte	0x6
ARM GAS  C:\Users\SALMAC~1\AppData\Local\Temp\ccqMZLdK.s 			page 21


 1141 067d 4101     		.2byte	0x141
 1142 067f 92060000 		.4byte	0x692
 1143 0683 06       		.byte	0x6
 1144 0684 18       		.uleb128 0x18
 1145 0685 FE060000 		.4byte	.LASF96
 1146 0689 06       		.byte	0x6
 1147 068a 4201     		.2byte	0x142
 1148 068c 50000000 		.4byte	0x50
 1149 0690 0C       		.byte	0xc
 1150 0691 00       		.byte	0
 1151 0692 0B       		.uleb128 0xb
 1152 0693 50000000 		.4byte	0x50
 1153 0697 A2060000 		.4byte	0x6a2
 1154 069b 0C       		.uleb128 0xc
 1155 069c 7A000000 		.4byte	0x7a
 1156 06a0 02       		.byte	0x2
 1157 06a1 00       		.byte	0
 1158 06a2 1B       		.uleb128 0x1b
 1159 06a3 D0       		.byte	0xd0
 1160 06a4 06       		.byte	0x6
 1161 06a5 5902     		.2byte	0x259
 1162 06a7 A3070000 		.4byte	0x7a3
 1163 06ab 18       		.uleb128 0x18
 1164 06ac 29070000 		.4byte	.LASF97
 1165 06b0 06       		.byte	0x6
 1166 06b1 5B02     		.2byte	0x25b
 1167 06b3 7A000000 		.4byte	0x7a
 1168 06b7 00       		.byte	0
 1169 06b8 18       		.uleb128 0x18
 1170 06b9 DE060000 		.4byte	.LASF98
 1171 06bd 06       		.byte	0x6
 1172 06be 5C02     		.2byte	0x25c
 1173 06c0 70050000 		.4byte	0x570
 1174 06c4 04       		.byte	0x4
 1175 06c5 18       		.uleb128 0x18
 1176 06c6 12040000 		.4byte	.LASF99
 1177 06ca 06       		.byte	0x6
 1178 06cb 5D02     		.2byte	0x25d
 1179 06cd A3070000 		.4byte	0x7a3
 1180 06d1 08       		.byte	0x8
 1181 06d2 18       		.uleb128 0x18
 1182 06d3 8A070000 		.4byte	.LASF100
 1183 06d7 06       		.byte	0x6
 1184 06d8 5E02     		.2byte	0x25e
 1185 06da 9C010000 		.4byte	0x19c
 1186 06de 24       		.byte	0x24
 1187 06df 18       		.uleb128 0x18
 1188 06e0 0D020000 		.4byte	.LASF101
 1189 06e4 06       		.byte	0x6
 1190 06e5 5F02     		.2byte	0x25f
 1191 06e7 73000000 		.4byte	0x73
 1192 06eb 48       		.byte	0x48
 1193 06ec 18       		.uleb128 0x18
 1194 06ed EE050000 		.4byte	.LASF102
 1195 06f1 06       		.byte	0x6
 1196 06f2 6002     		.2byte	0x260
 1197 06f4 6C000000 		.4byte	0x6c
ARM GAS  C:\Users\SALMAC~1\AppData\Local\Temp\ccqMZLdK.s 			page 22


 1198 06f8 50       		.byte	0x50
 1199 06f9 18       		.uleb128 0x18
 1200 06fa AA070000 		.4byte	.LASF103
 1201 06fe 06       		.byte	0x6
 1202 06ff 6102     		.2byte	0x261
 1203 0701 5D060000 		.4byte	0x65d
 1204 0705 58       		.byte	0x58
 1205 0706 18       		.uleb128 0x18
 1206 0707 F9050000 		.4byte	.LASF104
 1207 070b 06       		.byte	0x6
 1208 070c 6202     		.2byte	0x262
 1209 070e 12010000 		.4byte	0x112
 1210 0712 68       		.byte	0x68
 1211 0713 18       		.uleb128 0x18
 1212 0714 AF070000 		.4byte	.LASF105
 1213 0718 06       		.byte	0x6
 1214 0719 6302     		.2byte	0x263
 1215 071b 12010000 		.4byte	0x112
 1216 071f 70       		.byte	0x70
 1217 0720 18       		.uleb128 0x18
 1218 0721 49050000 		.4byte	.LASF106
 1219 0725 06       		.byte	0x6
 1220 0726 6402     		.2byte	0x264
 1221 0728 12010000 		.4byte	0x112
 1222 072c 78       		.byte	0x78
 1223 072d 18       		.uleb128 0x18
 1224 072e 54070000 		.4byte	.LASF107
 1225 0732 06       		.byte	0x6
 1226 0733 6502     		.2byte	0x265
 1227 0735 B3070000 		.4byte	0x7b3
 1228 0739 80       		.byte	0x80
 1229 073a 18       		.uleb128 0x18
 1230 073b 06040000 		.4byte	.LASF108
 1231 073f 06       		.byte	0x6
 1232 0740 6602     		.2byte	0x266
 1233 0742 C3070000 		.4byte	0x7c3
 1234 0746 88       		.byte	0x88
 1235 0747 18       		.uleb128 0x18
 1236 0748 7C000000 		.4byte	.LASF109
 1237 074c 06       		.byte	0x6
 1238 074d 6702     		.2byte	0x267
 1239 074f 73000000 		.4byte	0x73
 1240 0753 A0       		.byte	0xa0
 1241 0754 18       		.uleb128 0x18
 1242 0755 D2010000 		.4byte	.LASF110
 1243 0759 06       		.byte	0x6
 1244 075a 6802     		.2byte	0x268
 1245 075c 12010000 		.4byte	0x112
 1246 0760 A4       		.byte	0xa4
 1247 0761 18       		.uleb128 0x18
 1248 0762 16010000 		.4byte	.LASF111
 1249 0766 06       		.byte	0x6
 1250 0767 6902     		.2byte	0x269
 1251 0769 12010000 		.4byte	0x112
 1252 076d AC       		.byte	0xac
 1253 076e 18       		.uleb128 0x18
 1254 076f C1010000 		.4byte	.LASF112
ARM GAS  C:\Users\SALMAC~1\AppData\Local\Temp\ccqMZLdK.s 			page 23


 1255 0773 06       		.byte	0x6
 1256 0774 6A02     		.2byte	0x26a
 1257 0776 12010000 		.4byte	0x112
 1258 077a B4       		.byte	0xb4
 1259 077b 18       		.uleb128 0x18
 1260 077c A9000000 		.4byte	.LASF113
 1261 0780 06       		.byte	0x6
 1262 0781 6B02     		.2byte	0x26b
 1263 0783 12010000 		.4byte	0x112
 1264 0787 BC       		.byte	0xbc
 1265 0788 18       		.uleb128 0x18
 1266 0789 B8000000 		.4byte	.LASF114
 1267 078d 06       		.byte	0x6
 1268 078e 6C02     		.2byte	0x26c
 1269 0790 12010000 		.4byte	0x112
 1270 0794 C4       		.byte	0xc4
 1271 0795 18       		.uleb128 0x18
 1272 0796 A1050000 		.4byte	.LASF115
 1273 079a 06       		.byte	0x6
 1274 079b 6D02     		.2byte	0x26d
 1275 079d 73000000 		.4byte	0x73
 1276 07a1 CC       		.byte	0xcc
 1277 07a2 00       		.byte	0
 1278 07a3 0B       		.uleb128 0xb
 1279 07a4 76050000 		.4byte	0x576
 1280 07a8 B3070000 		.4byte	0x7b3
 1281 07ac 0C       		.uleb128 0xc
 1282 07ad 7A000000 		.4byte	0x7a
 1283 07b1 19       		.byte	0x19
 1284 07b2 00       		.byte	0
 1285 07b3 0B       		.uleb128 0xb
 1286 07b4 76050000 		.4byte	0x576
 1287 07b8 C3070000 		.4byte	0x7c3
 1288 07bc 0C       		.uleb128 0xc
 1289 07bd 7A000000 		.4byte	0x7a
 1290 07c1 07       		.byte	0x7
 1291 07c2 00       		.byte	0
 1292 07c3 0B       		.uleb128 0xb
 1293 07c4 76050000 		.4byte	0x576
 1294 07c8 D3070000 		.4byte	0x7d3
 1295 07cc 0C       		.uleb128 0xc
 1296 07cd 7A000000 		.4byte	0x7a
 1297 07d1 17       		.byte	0x17
 1298 07d2 00       		.byte	0
 1299 07d3 1B       		.uleb128 0x1b
 1300 07d4 F0       		.byte	0xf0
 1301 07d5 06       		.byte	0x6
 1302 07d6 7202     		.2byte	0x272
 1303 07d8 F7070000 		.4byte	0x7f7
 1304 07dc 18       		.uleb128 0x18
 1305 07dd 84040000 		.4byte	.LASF116
 1306 07e1 06       		.byte	0x6
 1307 07e2 7502     		.2byte	0x275
 1308 07e4 F7070000 		.4byte	0x7f7
 1309 07e8 00       		.byte	0
 1310 07e9 18       		.uleb128 0x18
 1311 07ea 4B070000 		.4byte	.LASF117
ARM GAS  C:\Users\SALMAC~1\AppData\Local\Temp\ccqMZLdK.s 			page 24


 1312 07ee 06       		.byte	0x6
 1313 07ef 7602     		.2byte	0x276
 1314 07f1 07080000 		.4byte	0x807
 1315 07f5 78       		.byte	0x78
 1316 07f6 00       		.byte	0
 1317 07f7 0B       		.uleb128 0xb
 1318 07f8 E5020000 		.4byte	0x2e5
 1319 07fc 07080000 		.4byte	0x807
 1320 0800 0C       		.uleb128 0xc
 1321 0801 7A000000 		.4byte	0x7a
 1322 0805 1D       		.byte	0x1d
 1323 0806 00       		.byte	0
 1324 0807 0B       		.uleb128 0xb
 1325 0808 7A000000 		.4byte	0x7a
 1326 080c 17080000 		.4byte	0x817
 1327 0810 0C       		.uleb128 0xc
 1328 0811 7A000000 		.4byte	0x7a
 1329 0815 1D       		.byte	0x1d
 1330 0816 00       		.byte	0
 1331 0817 1C       		.uleb128 0x1c
 1332 0818 F0       		.byte	0xf0
 1333 0819 06       		.byte	0x6
 1334 081a 5702     		.2byte	0x257
 1335 081c 39080000 		.4byte	0x839
 1336 0820 1D       		.uleb128 0x1d
 1337 0821 5F060000 		.4byte	.LASF66
 1338 0825 06       		.byte	0x6
 1339 0826 6E02     		.2byte	0x26e
 1340 0828 A2060000 		.4byte	0x6a2
 1341 082c 1D       		.uleb128 0x1d
 1342 082d 77070000 		.4byte	.LASF118
 1343 0831 06       		.byte	0x6
 1344 0832 7702     		.2byte	0x277
 1345 0834 D3070000 		.4byte	0x7d3
 1346 0838 00       		.byte	0
 1347 0839 0B       		.uleb128 0xb
 1348 083a 76050000 		.4byte	0x576
 1349 083e 49080000 		.4byte	0x849
 1350 0842 0C       		.uleb128 0xc
 1351 0843 7A000000 		.4byte	0x7a
 1352 0847 18       		.byte	0x18
 1353 0848 00       		.byte	0
 1354 0849 07       		.uleb128 0x7
 1355 084a FF000000 		.4byte	.LASF120
 1356 084e 06       		.uleb128 0x6
 1357 084f 04       		.byte	0x4
 1358 0850 49080000 		.4byte	0x849
 1359 0854 1E       		.uleb128 0x1e
 1360 0855 5F080000 		.4byte	0x85f
 1361 0859 15       		.uleb128 0x15
 1362 085a 33040000 		.4byte	0x433
 1363 085e 00       		.byte	0
 1364 085f 06       		.uleb128 0x6
 1365 0860 04       		.byte	0x4
 1366 0861 54080000 		.4byte	0x854
 1367 0865 06       		.uleb128 0x6
 1368 0866 04       		.byte	0x4
ARM GAS  C:\Users\SALMAC~1\AppData\Local\Temp\ccqMZLdK.s 			page 25


 1369 0867 86010000 		.4byte	0x186
 1370 086b 1E       		.uleb128 0x1e
 1371 086c 76080000 		.4byte	0x876
 1372 0870 15       		.uleb128 0x15
 1373 0871 73000000 		.4byte	0x73
 1374 0875 00       		.byte	0
 1375 0876 06       		.uleb128 0x6
 1376 0877 04       		.byte	0x4
 1377 0878 7C080000 		.4byte	0x87c
 1378 087c 06       		.uleb128 0x6
 1379 087d 04       		.byte	0x4
 1380 087e 6B080000 		.4byte	0x86b
 1381 0882 0B       		.uleb128 0xb
 1382 0883 10060000 		.4byte	0x610
 1383 0887 92080000 		.4byte	0x892
 1384 088b 0C       		.uleb128 0xc
 1385 088c 7A000000 		.4byte	0x7a
 1386 0890 02       		.byte	0x2
 1387 0891 00       		.byte	0
 1388 0892 1F       		.uleb128 0x1f
 1389 0893 A1060000 		.4byte	.LASF121
 1390 0897 06       		.byte	0x6
 1391 0898 0703     		.2byte	0x307
 1392 089a 33040000 		.4byte	0x433
 1393 089e 1F       		.uleb128 0x1f
 1394 089f 16070000 		.4byte	.LASF122
 1395 08a3 06       		.byte	0x6
 1396 08a4 0803     		.2byte	0x308
 1397 08a6 39040000 		.4byte	0x439
 1398 08aa 03       		.uleb128 0x3
 1399 08ab CA060000 		.4byte	.LASF123
 1400 08af 07       		.byte	0x7
 1401 08b0 18       		.byte	0x18
 1402 08b1 2C000000 		.4byte	0x2c
 1403 08b5 03       		.uleb128 0x3
 1404 08b6 2E010000 		.4byte	.LASF124
 1405 08ba 07       		.byte	0x7
 1406 08bb 20       		.byte	0x20
 1407 08bc 3E000000 		.4byte	0x3e
 1408 08c0 20       		.uleb128 0x20
 1409 08c1 0F050000 		.4byte	.LASF125
 1410 08c5 08       		.byte	0x8
 1411 08c6 63       		.byte	0x63
 1412 08c7 70050000 		.4byte	0x570
 1413 08cb 21       		.uleb128 0x21
 1414 08cc 07       		.byte	0x7
 1415 08cd 01       		.byte	0x1
 1416 08ce 37000000 		.4byte	0x37
 1417 08d2 09       		.byte	0x9
 1418 08d3 1B       		.byte	0x1b
 1419 08d4 09090000 		.4byte	0x909
 1420 08d8 22       		.uleb128 0x22
 1421 08d9 F3000000 		.4byte	.LASF126
 1422 08dd 00       		.byte	0
 1423 08de 22       		.uleb128 0x22
 1424 08df 55040000 		.4byte	.LASF127
 1425 08e3 01       		.byte	0x1
ARM GAS  C:\Users\SALMAC~1\AppData\Local\Temp\ccqMZLdK.s 			page 26


 1426 08e4 22       		.uleb128 0x22
 1427 08e5 10060000 		.4byte	.LASF128
 1428 08e9 02       		.byte	0x2
 1429 08ea 22       		.uleb128 0x22
 1430 08eb 03070000 		.4byte	.LASF129
 1431 08ef 03       		.byte	0x3
 1432 08f0 22       		.uleb128 0x22
 1433 08f1 00080000 		.4byte	.LASF130
 1434 08f5 04       		.byte	0x4
 1435 08f6 22       		.uleb128 0x22
 1436 08f7 A0070000 		.4byte	.LASF131
 1437 08fb 05       		.byte	0x5
 1438 08fc 22       		.uleb128 0x22
 1439 08fd D2030000 		.4byte	.LASF132
 1440 0901 06       		.byte	0x6
 1441 0902 22       		.uleb128 0x22
 1442 0903 1C020000 		.4byte	.LASF133
 1443 0907 07       		.byte	0x7
 1444 0908 00       		.byte	0
 1445 0909 21       		.uleb128 0x21
 1446 090a 07       		.byte	0x7
 1447 090b 01       		.byte	0x1
 1448 090c 37000000 		.4byte	0x37
 1449 0910 01       		.byte	0x1
 1450 0911 15       		.byte	0x15
 1451 0912 23090000 		.4byte	0x923
 1452 0916 22       		.uleb128 0x22
 1453 0917 4A040000 		.4byte	.LASF134
 1454 091b 00       		.byte	0
 1455 091c 22       		.uleb128 0x22
 1456 091d 0C000000 		.4byte	.LASF135
 1457 0921 01       		.byte	0x1
 1458 0922 00       		.byte	0
 1459 0923 23       		.uleb128 0x23
 1460 0924 CF070000 		.4byte	.LASF140
 1461 0928 01       		.byte	0x1
 1462 0929 17       		.byte	0x17
 1463 092a 34090000 		.4byte	0x934
 1464 092e 05       		.uleb128 0x5
 1465 092f 03       		.byte	0x3
 1466 0930 00000000 		.4byte	last_difference
 1467 0934 02       		.uleb128 0x2
 1468 0935 04       		.byte	0x4
 1469 0936 04       		.byte	0x4
 1470 0937 2B050000 		.4byte	.LASF136
 1471 093b 24       		.uleb128 0x24
 1472 093c BC030000 		.4byte	.LASF142
 1473 0940 01       		.byte	0x1
 1474 0941 4C       		.byte	0x4c
 1475 0942 00000000 		.4byte	.LFB5
 1476 0946 38000000 		.4byte	.LFE5-.LFB5
 1477 094a 01       		.uleb128 0x1
 1478 094b 9C       		.byte	0x9c
 1479 094c FF090000 		.4byte	0x9ff
 1480 0950 25       		.uleb128 0x25
 1481 0951 8B040000 		.4byte	.LASF137
 1482 0955 01       		.byte	0x1
ARM GAS  C:\Users\SALMAC~1\AppData\Local\Temp\ccqMZLdK.s 			page 27


 1483 0956 4C       		.byte	0x4c
 1484 0957 73000000 		.4byte	0x73
 1485 095b 00000000 		.4byte	.LLST10
 1486 095f 25       		.uleb128 0x25
 1487 0960 31050000 		.4byte	.LASF138
 1488 0964 01       		.byte	0x1
 1489 0965 4C       		.byte	0x4c
 1490 0966 73000000 		.4byte	0x73
 1491 096a 21000000 		.4byte	.LLST11
 1492 096e 25       		.uleb128 0x25
 1493 096f F4060000 		.4byte	.LASF139
 1494 0973 01       		.byte	0x1
 1495 0974 4C       		.byte	0x4c
 1496 0975 73000000 		.4byte	0x73
 1497 0979 42000000 		.4byte	.LLST12
 1498 097d 26       		.uleb128 0x26
 1499 097e 8F000000 		.4byte	.LASF141
 1500 0982 01       		.byte	0x1
 1501 0983 4E       		.byte	0x4e
 1502 0984 B5080000 		.4byte	0x8b5
 1503 0988 63000000 		.4byte	.LLST13
 1504 098c 27       		.uleb128 0x27
 1505 098d 2E000000 		.4byte	.LVL34
 1506 0991 7C0A0000 		.4byte	0xa7c
 1507 0995 F5090000 		.4byte	0x9f5
 1508 0999 28       		.uleb128 0x28
 1509 099a 01       		.uleb128 0x1
 1510 099b 50       		.byte	0x50
 1511 099c 52       		.uleb128 0x52
 1512 099d 44       		.byte	0x44
 1513 099e F3       		.byte	0xf3
 1514 099f 01       		.uleb128 0x1
 1515 09a0 50       		.byte	0x50
 1516 09a1 F3       		.byte	0xf3
 1517 09a2 01       		.uleb128 0x1
 1518 09a3 51       		.byte	0x51
 1519 09a4 1C       		.byte	0x1c
 1520 09a5 0A       		.byte	0xa
 1521 09a6 FFFF     		.2byte	0xffff
 1522 09a8 1A       		.byte	0x1a
 1523 09a9 1C       		.byte	0x1c
 1524 09aa F3       		.byte	0xf3
 1525 09ab 01       		.uleb128 0x1
 1526 09ac 50       		.byte	0x50
 1527 09ad F3       		.byte	0xf3
 1528 09ae 01       		.uleb128 0x1
 1529 09af 51       		.byte	0x51
 1530 09b0 1C       		.byte	0x1c
 1531 09b1 0A       		.byte	0xa
 1532 09b2 FFFF     		.2byte	0xffff
 1533 09b4 1A       		.byte	0x1a
 1534 09b5 F3       		.byte	0xf3
 1535 09b6 01       		.uleb128 0x1
 1536 09b7 52       		.byte	0x52
 1537 09b8 31       		.byte	0x31
 1538 09b9 29       		.byte	0x29
 1539 09ba 28       		.byte	0x28
ARM GAS  C:\Users\SALMAC~1\AppData\Local\Temp\ccqMZLdK.s 			page 28


 1540 09bb 0100     		.2byte	0x1
 1541 09bd 16       		.byte	0x16
 1542 09be 13       		.byte	0x13
 1543 09bf 0A       		.byte	0xa
 1544 09c0 FFFF     		.2byte	0xffff
 1545 09c2 1A       		.byte	0x1a
 1546 09c3 44       		.byte	0x44
 1547 09c4 F3       		.byte	0xf3
 1548 09c5 01       		.uleb128 0x1
 1549 09c6 50       		.byte	0x50
 1550 09c7 F3       		.byte	0xf3
 1551 09c8 01       		.uleb128 0x1
 1552 09c9 51       		.byte	0x51
 1553 09ca 1C       		.byte	0x1c
 1554 09cb 0A       		.byte	0xa
 1555 09cc FFFF     		.2byte	0xffff
 1556 09ce 1A       		.byte	0x1a
 1557 09cf 1C       		.byte	0x1c
 1558 09d0 F3       		.byte	0xf3
 1559 09d1 01       		.uleb128 0x1
 1560 09d2 50       		.byte	0x50
 1561 09d3 F3       		.byte	0xf3
 1562 09d4 01       		.uleb128 0x1
 1563 09d5 51       		.byte	0x51
 1564 09d6 1C       		.byte	0x1c
 1565 09d7 0A       		.byte	0xa
 1566 09d8 FFFF     		.2byte	0xffff
 1567 09da 1A       		.byte	0x1a
 1568 09db F3       		.byte	0xf3
 1569 09dc 01       		.uleb128 0x1
 1570 09dd 52       		.byte	0x52
 1571 09de 31       		.byte	0x31
 1572 09df 29       		.byte	0x29
 1573 09e0 28       		.byte	0x28
 1574 09e1 0100     		.2byte	0x1
 1575 09e3 16       		.byte	0x16
 1576 09e4 13       		.byte	0x13
 1577 09e5 F3       		.byte	0xf3
 1578 09e6 01       		.uleb128 0x1
 1579 09e7 52       		.byte	0x52
 1580 09e8 31       		.byte	0x31
 1581 09e9 29       		.byte	0x29
 1582 09ea 28       		.byte	0x28
 1583 09eb 0100     		.2byte	0x1
 1584 09ed 16       		.byte	0x16
 1585 09ee 13       		.byte	0x13
 1586 09ef 28       		.uleb128 0x28
 1587 09f0 01       		.uleb128 0x1
 1588 09f1 51       		.byte	0x51
 1589 09f2 01       		.uleb128 0x1
 1590 09f3 31       		.byte	0x31
 1591 09f4 00       		.byte	0
 1592 09f5 29       		.uleb128 0x29
 1593 09f6 32000000 		.4byte	.LVL35
 1594 09fa 1E0B0000 		.4byte	0xb1e
 1595 09fe 00       		.byte	0
 1596 09ff 24       		.uleb128 0x24
ARM GAS  C:\Users\SALMAC~1\AppData\Local\Temp\ccqMZLdK.s 			page 29


 1597 0a00 67000000 		.4byte	.LASF143
 1598 0a04 01       		.byte	0x1
 1599 0a05 38       		.byte	0x38
 1600 0a06 00000000 		.4byte	.LFB4
 1601 0a0a 3C000000 		.4byte	.LFE4-.LFB4
 1602 0a0e 01       		.uleb128 0x1
 1603 0a0f 9C       		.byte	0x9c
 1604 0a10 7C0A0000 		.4byte	0xa7c
 1605 0a14 25       		.uleb128 0x25
 1606 0a15 89060000 		.4byte	.LASF144
 1607 0a19 01       		.byte	0x1
 1608 0a1a 38       		.byte	0x38
 1609 0a1b 73000000 		.4byte	0x73
 1610 0a1f 58010000 		.4byte	.LLST5
 1611 0a23 25       		.uleb128 0x25
 1612 0a24 DF070000 		.4byte	.LASF145
 1613 0a28 01       		.byte	0x1
 1614 0a29 38       		.byte	0x38
 1615 0a2a 73000000 		.4byte	0x73
 1616 0a2e 92010000 		.4byte	.LLST6
 1617 0a32 25       		.uleb128 0x25
 1618 0a33 73050000 		.4byte	.LASF146
 1619 0a37 01       		.byte	0x1
 1620 0a38 38       		.byte	0x38
 1621 0a39 73000000 		.4byte	0x73
 1622 0a3d CC010000 		.4byte	.LLST7
 1623 0a41 25       		.uleb128 0x25
 1624 0a42 62050000 		.4byte	.LASF147
 1625 0a46 01       		.byte	0x1
 1626 0a47 38       		.byte	0x38
 1627 0a48 73000000 		.4byte	0x73
 1628 0a4c 06020000 		.4byte	.LLST8
 1629 0a50 26       		.uleb128 0x26
 1630 0a51 8F000000 		.4byte	.LASF141
 1631 0a55 01       		.byte	0x1
 1632 0a56 40       		.byte	0x40
 1633 0a57 B5080000 		.4byte	0x8b5
 1634 0a5b 40020000 		.4byte	.LLST9
 1635 0a5f 27       		.uleb128 0x27
 1636 0a60 2C000000 		.4byte	.LVL22
 1637 0a64 7C0A0000 		.4byte	0xa7c
 1638 0a68 720A0000 		.4byte	0xa72
 1639 0a6c 28       		.uleb128 0x28
 1640 0a6d 01       		.uleb128 0x1
 1641 0a6e 51       		.byte	0x51
 1642 0a6f 01       		.uleb128 0x1
 1643 0a70 30       		.byte	0x30
 1644 0a71 00       		.byte	0
 1645 0a72 29       		.uleb128 0x29
 1646 0a73 36000000 		.4byte	.LVL26
 1647 0a77 1E0B0000 		.4byte	0xb1e
 1648 0a7b 00       		.byte	0
 1649 0a7c 24       		.uleb128 0x24
 1650 0a7d C2070000 		.4byte	.LASF148
 1651 0a81 01       		.byte	0x1
 1652 0a82 1A       		.byte	0x1a
 1653 0a83 00000000 		.4byte	.LFB3
ARM GAS  C:\Users\SALMAC~1\AppData\Local\Temp\ccqMZLdK.s 			page 30


 1654 0a87 DC000000 		.4byte	.LFE3-.LFB3
 1655 0a8b 01       		.uleb128 0x1
 1656 0a8c 9C       		.byte	0x9c
 1657 0a8d 1E0B0000 		.4byte	0xb1e
 1658 0a91 25       		.uleb128 0x25
 1659 0a92 8F000000 		.4byte	.LASF141
 1660 0a96 01       		.byte	0x1
 1661 0a97 1A       		.byte	0x1a
 1662 0a98 B5080000 		.4byte	0x8b5
 1663 0a9c 5E020000 		.4byte	.LLST0
 1664 0aa0 25       		.uleb128 0x25
 1665 0aa1 26000000 		.4byte	.LASF149
 1666 0aa5 01       		.byte	0x1
 1667 0aa6 1A       		.byte	0x1a
 1668 0aa7 AA080000 		.4byte	0x8aa
 1669 0aab 87020000 		.4byte	.LLST1
 1670 0aaf 26       		.uleb128 0x26
 1671 0ab0 0A010000 		.4byte	.LASF150
 1672 0ab4 01       		.byte	0x1
 1673 0ab5 1C       		.byte	0x1c
 1674 0ab6 B5080000 		.4byte	0x8b5
 1675 0aba C1020000 		.4byte	.LLST2
 1676 0abe 26       		.uleb128 0x26
 1677 0abf 57050000 		.4byte	.LASF151
 1678 0ac3 01       		.byte	0x1
 1679 0ac4 1C       		.byte	0x1c
 1680 0ac5 B5080000 		.4byte	0x8b5
 1681 0ac9 DF020000 		.4byte	.LLST3
 1682 0acd 26       		.uleb128 0x26
 1683 0ace 98050000 		.4byte	.LASF152
 1684 0ad2 01       		.byte	0x1
 1685 0ad3 1C       		.byte	0x1c
 1686 0ad4 B5080000 		.4byte	0x8b5
 1687 0ad8 FD020000 		.4byte	.LLST4
 1688 0adc 29       		.uleb128 0x29
 1689 0add 42000000 		.4byte	.LVL3
 1690 0ae1 270B0000 		.4byte	0xb27
 1691 0ae5 29       		.uleb128 0x29
 1692 0ae6 50000000 		.4byte	.LVL4
 1693 0aea 320B0000 		.4byte	0xb32
 1694 0aee 2A       		.uleb128 0x2a
 1695 0aef 60000000 		.4byte	.LVL8
 1696 0af3 3D0B0000 		.4byte	0xb3d
 1697 0af7 020B0000 		.4byte	0xb02
 1698 0afb 28       		.uleb128 0x28
 1699 0afc 01       		.uleb128 0x1
 1700 0afd 50       		.byte	0x50
 1701 0afe 02       		.uleb128 0x2
 1702 0aff 78       		.byte	0x78
 1703 0b00 00       		.sleb128 0
 1704 0b01 00       		.byte	0
 1705 0b02 29       		.uleb128 0x29
 1706 0b03 7A000000 		.4byte	.LVL10
 1707 0b07 270B0000 		.4byte	0xb27
 1708 0b0b 29       		.uleb128 0x29
 1709 0b0c AA000000 		.4byte	.LVL12
 1710 0b10 320B0000 		.4byte	0xb32
ARM GAS  C:\Users\SALMAC~1\AppData\Local\Temp\ccqMZLdK.s 			page 31


 1711 0b14 29       		.uleb128 0x29
 1712 0b15 CA000000 		.4byte	.LVL15
 1713 0b19 1E0B0000 		.4byte	0xb1e
 1714 0b1d 00       		.byte	0
 1715 0b1e 2B       		.uleb128 0x2b
 1716 0b1f 46060000 		.4byte	.LASF159
 1717 0b23 46060000 		.4byte	.LASF159
 1718 0b27 2C       		.uleb128 0x2c
 1719 0b28 57000000 		.4byte	.LASF153
 1720 0b2c 57000000 		.4byte	.LASF153
 1721 0b30 0A       		.byte	0xa
 1722 0b31 11       		.byte	0x11
 1723 0b32 2C       		.uleb128 0x2c
 1724 0b33 9A000000 		.4byte	.LASF154
 1725 0b37 9A000000 		.4byte	.LASF154
 1726 0b3b 0A       		.byte	0xa
 1727 0b3c 12       		.byte	0x12
 1728 0b3d 2C       		.uleb128 0x2c
 1729 0b3e E0000000 		.4byte	.LASF155
 1730 0b42 E0000000 		.4byte	.LASF155
 1731 0b46 0A       		.byte	0xa
 1732 0b47 0E       		.byte	0xe
 1733 0b48 00       		.byte	0
 1734              		.section	.debug_abbrev,"",%progbits
 1735              	.Ldebug_abbrev0:
 1736 0000 01       		.uleb128 0x1
 1737 0001 11       		.uleb128 0x11
 1738 0002 01       		.byte	0x1
 1739 0003 25       		.uleb128 0x25
 1740 0004 0E       		.uleb128 0xe
 1741 0005 13       		.uleb128 0x13
 1742 0006 0B       		.uleb128 0xb
 1743 0007 03       		.uleb128 0x3
 1744 0008 0E       		.uleb128 0xe
 1745 0009 1B       		.uleb128 0x1b
 1746 000a 0E       		.uleb128 0xe
 1747 000b 55       		.uleb128 0x55
 1748 000c 17       		.uleb128 0x17
 1749 000d 11       		.uleb128 0x11
 1750 000e 01       		.uleb128 0x1
 1751 000f 10       		.uleb128 0x10
 1752 0010 17       		.uleb128 0x17
 1753 0011 00       		.byte	0
 1754 0012 00       		.byte	0
 1755 0013 02       		.uleb128 0x2
 1756 0014 24       		.uleb128 0x24
 1757 0015 00       		.byte	0
 1758 0016 0B       		.uleb128 0xb
 1759 0017 0B       		.uleb128 0xb
 1760 0018 3E       		.uleb128 0x3e
 1761 0019 0B       		.uleb128 0xb
 1762 001a 03       		.uleb128 0x3
 1763 001b 0E       		.uleb128 0xe
 1764 001c 00       		.byte	0
 1765 001d 00       		.byte	0
 1766 001e 03       		.uleb128 0x3
 1767 001f 16       		.uleb128 0x16
ARM GAS  C:\Users\SALMAC~1\AppData\Local\Temp\ccqMZLdK.s 			page 32


 1768 0020 00       		.byte	0
 1769 0021 03       		.uleb128 0x3
 1770 0022 0E       		.uleb128 0xe
 1771 0023 3A       		.uleb128 0x3a
 1772 0024 0B       		.uleb128 0xb
 1773 0025 3B       		.uleb128 0x3b
 1774 0026 0B       		.uleb128 0xb
 1775 0027 49       		.uleb128 0x49
 1776 0028 13       		.uleb128 0x13
 1777 0029 00       		.byte	0
 1778 002a 00       		.byte	0
 1779 002b 04       		.uleb128 0x4
 1780 002c 24       		.uleb128 0x24
 1781 002d 00       		.byte	0
 1782 002e 0B       		.uleb128 0xb
 1783 002f 0B       		.uleb128 0xb
 1784 0030 3E       		.uleb128 0x3e
 1785 0031 0B       		.uleb128 0xb
 1786 0032 03       		.uleb128 0x3
 1787 0033 08       		.uleb128 0x8
 1788 0034 00       		.byte	0
 1789 0035 00       		.byte	0
 1790 0036 05       		.uleb128 0x5
 1791 0037 0F       		.uleb128 0xf
 1792 0038 00       		.byte	0
 1793 0039 0B       		.uleb128 0xb
 1794 003a 0B       		.uleb128 0xb
 1795 003b 00       		.byte	0
 1796 003c 00       		.byte	0
 1797 003d 06       		.uleb128 0x6
 1798 003e 0F       		.uleb128 0xf
 1799 003f 00       		.byte	0
 1800 0040 0B       		.uleb128 0xb
 1801 0041 0B       		.uleb128 0xb
 1802 0042 49       		.uleb128 0x49
 1803 0043 13       		.uleb128 0x13
 1804 0044 00       		.byte	0
 1805 0045 00       		.byte	0
 1806 0046 07       		.uleb128 0x7
 1807 0047 13       		.uleb128 0x13
 1808 0048 00       		.byte	0
 1809 0049 03       		.uleb128 0x3
 1810 004a 0E       		.uleb128 0xe
 1811 004b 3C       		.uleb128 0x3c
 1812 004c 19       		.uleb128 0x19
 1813 004d 00       		.byte	0
 1814 004e 00       		.byte	0
 1815 004f 08       		.uleb128 0x8
 1816 0050 16       		.uleb128 0x16
 1817 0051 00       		.byte	0
 1818 0052 03       		.uleb128 0x3
 1819 0053 0E       		.uleb128 0xe
 1820 0054 3A       		.uleb128 0x3a
 1821 0055 0B       		.uleb128 0xb
 1822 0056 3B       		.uleb128 0x3b
 1823 0057 05       		.uleb128 0x5
 1824 0058 49       		.uleb128 0x49
ARM GAS  C:\Users\SALMAC~1\AppData\Local\Temp\ccqMZLdK.s 			page 33


 1825 0059 13       		.uleb128 0x13
 1826 005a 00       		.byte	0
 1827 005b 00       		.byte	0
 1828 005c 09       		.uleb128 0x9
 1829 005d 17       		.uleb128 0x17
 1830 005e 01       		.byte	0x1
 1831 005f 0B       		.uleb128 0xb
 1832 0060 0B       		.uleb128 0xb
 1833 0061 3A       		.uleb128 0x3a
 1834 0062 0B       		.uleb128 0xb
 1835 0063 3B       		.uleb128 0x3b
 1836 0064 0B       		.uleb128 0xb
 1837 0065 01       		.uleb128 0x1
 1838 0066 13       		.uleb128 0x13
 1839 0067 00       		.byte	0
 1840 0068 00       		.byte	0
 1841 0069 0A       		.uleb128 0xa
 1842 006a 0D       		.uleb128 0xd
 1843 006b 00       		.byte	0
 1844 006c 03       		.uleb128 0x3
 1845 006d 0E       		.uleb128 0xe
 1846 006e 3A       		.uleb128 0x3a
 1847 006f 0B       		.uleb128 0xb
 1848 0070 3B       		.uleb128 0x3b
 1849 0071 0B       		.uleb128 0xb
 1850 0072 49       		.uleb128 0x49
 1851 0073 13       		.uleb128 0x13
 1852 0074 00       		.byte	0
 1853 0075 00       		.byte	0
 1854 0076 0B       		.uleb128 0xb
 1855 0077 01       		.uleb128 0x1
 1856 0078 01       		.byte	0x1
 1857 0079 49       		.uleb128 0x49
 1858 007a 13       		.uleb128 0x13
 1859 007b 01       		.uleb128 0x1
 1860 007c 13       		.uleb128 0x13
 1861 007d 00       		.byte	0
 1862 007e 00       		.byte	0
 1863 007f 0C       		.uleb128 0xc
 1864 0080 21       		.uleb128 0x21
 1865 0081 00       		.byte	0
 1866 0082 49       		.uleb128 0x49
 1867 0083 13       		.uleb128 0x13
 1868 0084 2F       		.uleb128 0x2f
 1869 0085 0B       		.uleb128 0xb
 1870 0086 00       		.byte	0
 1871 0087 00       		.byte	0
 1872 0088 0D       		.uleb128 0xd
 1873 0089 13       		.uleb128 0x13
 1874 008a 01       		.byte	0x1
 1875 008b 0B       		.uleb128 0xb
 1876 008c 0B       		.uleb128 0xb
 1877 008d 3A       		.uleb128 0x3a
 1878 008e 0B       		.uleb128 0xb
 1879 008f 3B       		.uleb128 0x3b
 1880 0090 0B       		.uleb128 0xb
 1881 0091 01       		.uleb128 0x1
ARM GAS  C:\Users\SALMAC~1\AppData\Local\Temp\ccqMZLdK.s 			page 34


 1882 0092 13       		.uleb128 0x13
 1883 0093 00       		.byte	0
 1884 0094 00       		.byte	0
 1885 0095 0E       		.uleb128 0xe
 1886 0096 0D       		.uleb128 0xd
 1887 0097 00       		.byte	0
 1888 0098 03       		.uleb128 0x3
 1889 0099 0E       		.uleb128 0xe
 1890 009a 3A       		.uleb128 0x3a
 1891 009b 0B       		.uleb128 0xb
 1892 009c 3B       		.uleb128 0x3b
 1893 009d 0B       		.uleb128 0xb
 1894 009e 49       		.uleb128 0x49
 1895 009f 13       		.uleb128 0x13
 1896 00a0 38       		.uleb128 0x38
 1897 00a1 0B       		.uleb128 0xb
 1898 00a2 00       		.byte	0
 1899 00a3 00       		.byte	0
 1900 00a4 0F       		.uleb128 0xf
 1901 00a5 13       		.uleb128 0x13
 1902 00a6 01       		.byte	0x1
 1903 00a7 03       		.uleb128 0x3
 1904 00a8 0E       		.uleb128 0xe
 1905 00a9 0B       		.uleb128 0xb
 1906 00aa 0B       		.uleb128 0xb
 1907 00ab 3A       		.uleb128 0x3a
 1908 00ac 0B       		.uleb128 0xb
 1909 00ad 3B       		.uleb128 0x3b
 1910 00ae 0B       		.uleb128 0xb
 1911 00af 01       		.uleb128 0x1
 1912 00b0 13       		.uleb128 0x13
 1913 00b1 00       		.byte	0
 1914 00b2 00       		.byte	0
 1915 00b3 10       		.uleb128 0x10
 1916 00b4 0D       		.uleb128 0xd
 1917 00b5 00       		.byte	0
 1918 00b6 03       		.uleb128 0x3
 1919 00b7 08       		.uleb128 0x8
 1920 00b8 3A       		.uleb128 0x3a
 1921 00b9 0B       		.uleb128 0xb
 1922 00ba 3B       		.uleb128 0x3b
 1923 00bb 0B       		.uleb128 0xb
 1924 00bc 49       		.uleb128 0x49
 1925 00bd 13       		.uleb128 0x13
 1926 00be 38       		.uleb128 0x38
 1927 00bf 0B       		.uleb128 0xb
 1928 00c0 00       		.byte	0
 1929 00c1 00       		.byte	0
 1930 00c2 11       		.uleb128 0x11
 1931 00c3 13       		.uleb128 0x13
 1932 00c4 01       		.byte	0x1
 1933 00c5 03       		.uleb128 0x3
 1934 00c6 0E       		.uleb128 0xe
 1935 00c7 0B       		.uleb128 0xb
 1936 00c8 05       		.uleb128 0x5
 1937 00c9 3A       		.uleb128 0x3a
 1938 00ca 0B       		.uleb128 0xb
ARM GAS  C:\Users\SALMAC~1\AppData\Local\Temp\ccqMZLdK.s 			page 35


 1939 00cb 3B       		.uleb128 0x3b
 1940 00cc 0B       		.uleb128 0xb
 1941 00cd 01       		.uleb128 0x1
 1942 00ce 13       		.uleb128 0x13
 1943 00cf 00       		.byte	0
 1944 00d0 00       		.byte	0
 1945 00d1 12       		.uleb128 0x12
 1946 00d2 0D       		.uleb128 0xd
 1947 00d3 00       		.byte	0
 1948 00d4 03       		.uleb128 0x3
 1949 00d5 0E       		.uleb128 0xe
 1950 00d6 3A       		.uleb128 0x3a
 1951 00d7 0B       		.uleb128 0xb
 1952 00d8 3B       		.uleb128 0x3b
 1953 00d9 0B       		.uleb128 0xb
 1954 00da 49       		.uleb128 0x49
 1955 00db 13       		.uleb128 0x13
 1956 00dc 38       		.uleb128 0x38
 1957 00dd 05       		.uleb128 0x5
 1958 00de 00       		.byte	0
 1959 00df 00       		.byte	0
 1960 00e0 13       		.uleb128 0x13
 1961 00e1 15       		.uleb128 0x15
 1962 00e2 00       		.byte	0
 1963 00e3 27       		.uleb128 0x27
 1964 00e4 19       		.uleb128 0x19
 1965 00e5 00       		.byte	0
 1966 00e6 00       		.byte	0
 1967 00e7 14       		.uleb128 0x14
 1968 00e8 15       		.uleb128 0x15
 1969 00e9 01       		.byte	0x1
 1970 00ea 27       		.uleb128 0x27
 1971 00eb 19       		.uleb128 0x19
 1972 00ec 49       		.uleb128 0x49
 1973 00ed 13       		.uleb128 0x13
 1974 00ee 01       		.uleb128 0x1
 1975 00ef 13       		.uleb128 0x13
 1976 00f0 00       		.byte	0
 1977 00f1 00       		.byte	0
 1978 00f2 15       		.uleb128 0x15
 1979 00f3 05       		.uleb128 0x5
 1980 00f4 00       		.byte	0
 1981 00f5 49       		.uleb128 0x49
 1982 00f6 13       		.uleb128 0x13
 1983 00f7 00       		.byte	0
 1984 00f8 00       		.byte	0
 1985 00f9 16       		.uleb128 0x16
 1986 00fa 26       		.uleb128 0x26
 1987 00fb 00       		.byte	0
 1988 00fc 49       		.uleb128 0x49
 1989 00fd 13       		.uleb128 0x13
 1990 00fe 00       		.byte	0
 1991 00ff 00       		.byte	0
 1992 0100 17       		.uleb128 0x17
 1993 0101 13       		.uleb128 0x13
 1994 0102 01       		.byte	0x1
 1995 0103 03       		.uleb128 0x3
ARM GAS  C:\Users\SALMAC~1\AppData\Local\Temp\ccqMZLdK.s 			page 36


 1996 0104 0E       		.uleb128 0xe
 1997 0105 0B       		.uleb128 0xb
 1998 0106 05       		.uleb128 0x5
 1999 0107 3A       		.uleb128 0x3a
 2000 0108 0B       		.uleb128 0xb
 2001 0109 3B       		.uleb128 0x3b
 2002 010a 05       		.uleb128 0x5
 2003 010b 01       		.uleb128 0x1
 2004 010c 13       		.uleb128 0x13
 2005 010d 00       		.byte	0
 2006 010e 00       		.byte	0
 2007 010f 18       		.uleb128 0x18
 2008 0110 0D       		.uleb128 0xd
 2009 0111 00       		.byte	0
 2010 0112 03       		.uleb128 0x3
 2011 0113 0E       		.uleb128 0xe
 2012 0114 3A       		.uleb128 0x3a
 2013 0115 0B       		.uleb128 0xb
 2014 0116 3B       		.uleb128 0x3b
 2015 0117 05       		.uleb128 0x5
 2016 0118 49       		.uleb128 0x49
 2017 0119 13       		.uleb128 0x13
 2018 011a 38       		.uleb128 0x38
 2019 011b 0B       		.uleb128 0xb
 2020 011c 00       		.byte	0
 2021 011d 00       		.byte	0
 2022 011e 19       		.uleb128 0x19
 2023 011f 0D       		.uleb128 0xd
 2024 0120 00       		.byte	0
 2025 0121 03       		.uleb128 0x3
 2026 0122 0E       		.uleb128 0xe
 2027 0123 3A       		.uleb128 0x3a
 2028 0124 0B       		.uleb128 0xb
 2029 0125 3B       		.uleb128 0x3b
 2030 0126 05       		.uleb128 0x5
 2031 0127 49       		.uleb128 0x49
 2032 0128 13       		.uleb128 0x13
 2033 0129 38       		.uleb128 0x38
 2034 012a 05       		.uleb128 0x5
 2035 012b 00       		.byte	0
 2036 012c 00       		.byte	0
 2037 012d 1A       		.uleb128 0x1a
 2038 012e 13       		.uleb128 0x13
 2039 012f 01       		.byte	0x1
 2040 0130 03       		.uleb128 0x3
 2041 0131 0E       		.uleb128 0xe
 2042 0132 0B       		.uleb128 0xb
 2043 0133 0B       		.uleb128 0xb
 2044 0134 3A       		.uleb128 0x3a
 2045 0135 0B       		.uleb128 0xb
 2046 0136 3B       		.uleb128 0x3b
 2047 0137 05       		.uleb128 0x5
 2048 0138 01       		.uleb128 0x1
 2049 0139 13       		.uleb128 0x13
 2050 013a 00       		.byte	0
 2051 013b 00       		.byte	0
 2052 013c 1B       		.uleb128 0x1b
ARM GAS  C:\Users\SALMAC~1\AppData\Local\Temp\ccqMZLdK.s 			page 37


 2053 013d 13       		.uleb128 0x13
 2054 013e 01       		.byte	0x1
 2055 013f 0B       		.uleb128 0xb
 2056 0140 0B       		.uleb128 0xb
 2057 0141 3A       		.uleb128 0x3a
 2058 0142 0B       		.uleb128 0xb
 2059 0143 3B       		.uleb128 0x3b
 2060 0144 05       		.uleb128 0x5
 2061 0145 01       		.uleb128 0x1
 2062 0146 13       		.uleb128 0x13
 2063 0147 00       		.byte	0
 2064 0148 00       		.byte	0
 2065 0149 1C       		.uleb128 0x1c
 2066 014a 17       		.uleb128 0x17
 2067 014b 01       		.byte	0x1
 2068 014c 0B       		.uleb128 0xb
 2069 014d 0B       		.uleb128 0xb
 2070 014e 3A       		.uleb128 0x3a
 2071 014f 0B       		.uleb128 0xb
 2072 0150 3B       		.uleb128 0x3b
 2073 0151 05       		.uleb128 0x5
 2074 0152 01       		.uleb128 0x1
 2075 0153 13       		.uleb128 0x13
 2076 0154 00       		.byte	0
 2077 0155 00       		.byte	0
 2078 0156 1D       		.uleb128 0x1d
 2079 0157 0D       		.uleb128 0xd
 2080 0158 00       		.byte	0
 2081 0159 03       		.uleb128 0x3
 2082 015a 0E       		.uleb128 0xe
 2083 015b 3A       		.uleb128 0x3a
 2084 015c 0B       		.uleb128 0xb
 2085 015d 3B       		.uleb128 0x3b
 2086 015e 05       		.uleb128 0x5
 2087 015f 49       		.uleb128 0x49
 2088 0160 13       		.uleb128 0x13
 2089 0161 00       		.byte	0
 2090 0162 00       		.byte	0
 2091 0163 1E       		.uleb128 0x1e
 2092 0164 15       		.uleb128 0x15
 2093 0165 01       		.byte	0x1
 2094 0166 27       		.uleb128 0x27
 2095 0167 19       		.uleb128 0x19
 2096 0168 01       		.uleb128 0x1
 2097 0169 13       		.uleb128 0x13
 2098 016a 00       		.byte	0
 2099 016b 00       		.byte	0
 2100 016c 1F       		.uleb128 0x1f
 2101 016d 34       		.uleb128 0x34
 2102 016e 00       		.byte	0
 2103 016f 03       		.uleb128 0x3
 2104 0170 0E       		.uleb128 0xe
 2105 0171 3A       		.uleb128 0x3a
 2106 0172 0B       		.uleb128 0xb
 2107 0173 3B       		.uleb128 0x3b
 2108 0174 05       		.uleb128 0x5
 2109 0175 49       		.uleb128 0x49
ARM GAS  C:\Users\SALMAC~1\AppData\Local\Temp\ccqMZLdK.s 			page 38


 2110 0176 13       		.uleb128 0x13
 2111 0177 3F       		.uleb128 0x3f
 2112 0178 19       		.uleb128 0x19
 2113 0179 3C       		.uleb128 0x3c
 2114 017a 19       		.uleb128 0x19
 2115 017b 00       		.byte	0
 2116 017c 00       		.byte	0
 2117 017d 20       		.uleb128 0x20
 2118 017e 34       		.uleb128 0x34
 2119 017f 00       		.byte	0
 2120 0180 03       		.uleb128 0x3
 2121 0181 0E       		.uleb128 0xe
 2122 0182 3A       		.uleb128 0x3a
 2123 0183 0B       		.uleb128 0xb
 2124 0184 3B       		.uleb128 0x3b
 2125 0185 0B       		.uleb128 0xb
 2126 0186 49       		.uleb128 0x49
 2127 0187 13       		.uleb128 0x13
 2128 0188 3F       		.uleb128 0x3f
 2129 0189 19       		.uleb128 0x19
 2130 018a 3C       		.uleb128 0x3c
 2131 018b 19       		.uleb128 0x19
 2132 018c 00       		.byte	0
 2133 018d 00       		.byte	0
 2134 018e 21       		.uleb128 0x21
 2135 018f 04       		.uleb128 0x4
 2136 0190 01       		.byte	0x1
 2137 0191 3E       		.uleb128 0x3e
 2138 0192 0B       		.uleb128 0xb
 2139 0193 0B       		.uleb128 0xb
 2140 0194 0B       		.uleb128 0xb
 2141 0195 49       		.uleb128 0x49
 2142 0196 13       		.uleb128 0x13
 2143 0197 3A       		.uleb128 0x3a
 2144 0198 0B       		.uleb128 0xb
 2145 0199 3B       		.uleb128 0x3b
 2146 019a 0B       		.uleb128 0xb
 2147 019b 01       		.uleb128 0x1
 2148 019c 13       		.uleb128 0x13
 2149 019d 00       		.byte	0
 2150 019e 00       		.byte	0
 2151 019f 22       		.uleb128 0x22
 2152 01a0 28       		.uleb128 0x28
 2153 01a1 00       		.byte	0
 2154 01a2 03       		.uleb128 0x3
 2155 01a3 0E       		.uleb128 0xe
 2156 01a4 1C       		.uleb128 0x1c
 2157 01a5 0B       		.uleb128 0xb
 2158 01a6 00       		.byte	0
 2159 01a7 00       		.byte	0
 2160 01a8 23       		.uleb128 0x23
 2161 01a9 34       		.uleb128 0x34
 2162 01aa 00       		.byte	0
 2163 01ab 03       		.uleb128 0x3
 2164 01ac 0E       		.uleb128 0xe
 2165 01ad 3A       		.uleb128 0x3a
 2166 01ae 0B       		.uleb128 0xb
ARM GAS  C:\Users\SALMAC~1\AppData\Local\Temp\ccqMZLdK.s 			page 39


 2167 01af 3B       		.uleb128 0x3b
 2168 01b0 0B       		.uleb128 0xb
 2169 01b1 49       		.uleb128 0x49
 2170 01b2 13       		.uleb128 0x13
 2171 01b3 02       		.uleb128 0x2
 2172 01b4 18       		.uleb128 0x18
 2173 01b5 00       		.byte	0
 2174 01b6 00       		.byte	0
 2175 01b7 24       		.uleb128 0x24
 2176 01b8 2E       		.uleb128 0x2e
 2177 01b9 01       		.byte	0x1
 2178 01ba 3F       		.uleb128 0x3f
 2179 01bb 19       		.uleb128 0x19
 2180 01bc 03       		.uleb128 0x3
 2181 01bd 0E       		.uleb128 0xe
 2182 01be 3A       		.uleb128 0x3a
 2183 01bf 0B       		.uleb128 0xb
 2184 01c0 3B       		.uleb128 0x3b
 2185 01c1 0B       		.uleb128 0xb
 2186 01c2 27       		.uleb128 0x27
 2187 01c3 19       		.uleb128 0x19
 2188 01c4 11       		.uleb128 0x11
 2189 01c5 01       		.uleb128 0x1
 2190 01c6 12       		.uleb128 0x12
 2191 01c7 06       		.uleb128 0x6
 2192 01c8 40       		.uleb128 0x40
 2193 01c9 18       		.uleb128 0x18
 2194 01ca 9742     		.uleb128 0x2117
 2195 01cc 19       		.uleb128 0x19
 2196 01cd 01       		.uleb128 0x1
 2197 01ce 13       		.uleb128 0x13
 2198 01cf 00       		.byte	0
 2199 01d0 00       		.byte	0
 2200 01d1 25       		.uleb128 0x25
 2201 01d2 05       		.uleb128 0x5
 2202 01d3 00       		.byte	0
 2203 01d4 03       		.uleb128 0x3
 2204 01d5 0E       		.uleb128 0xe
 2205 01d6 3A       		.uleb128 0x3a
 2206 01d7 0B       		.uleb128 0xb
 2207 01d8 3B       		.uleb128 0x3b
 2208 01d9 0B       		.uleb128 0xb
 2209 01da 49       		.uleb128 0x49
 2210 01db 13       		.uleb128 0x13
 2211 01dc 02       		.uleb128 0x2
 2212 01dd 17       		.uleb128 0x17
 2213 01de 00       		.byte	0
 2214 01df 00       		.byte	0
 2215 01e0 26       		.uleb128 0x26
 2216 01e1 34       		.uleb128 0x34
 2217 01e2 00       		.byte	0
 2218 01e3 03       		.uleb128 0x3
 2219 01e4 0E       		.uleb128 0xe
 2220 01e5 3A       		.uleb128 0x3a
 2221 01e6 0B       		.uleb128 0xb
 2222 01e7 3B       		.uleb128 0x3b
 2223 01e8 0B       		.uleb128 0xb
ARM GAS  C:\Users\SALMAC~1\AppData\Local\Temp\ccqMZLdK.s 			page 40


 2224 01e9 49       		.uleb128 0x49
 2225 01ea 13       		.uleb128 0x13
 2226 01eb 02       		.uleb128 0x2
 2227 01ec 17       		.uleb128 0x17
 2228 01ed 00       		.byte	0
 2229 01ee 00       		.byte	0
 2230 01ef 27       		.uleb128 0x27
 2231 01f0 898201   		.uleb128 0x4109
 2232 01f3 01       		.byte	0x1
 2233 01f4 11       		.uleb128 0x11
 2234 01f5 01       		.uleb128 0x1
 2235 01f6 9542     		.uleb128 0x2115
 2236 01f8 19       		.uleb128 0x19
 2237 01f9 31       		.uleb128 0x31
 2238 01fa 13       		.uleb128 0x13
 2239 01fb 01       		.uleb128 0x1
 2240 01fc 13       		.uleb128 0x13
 2241 01fd 00       		.byte	0
 2242 01fe 00       		.byte	0
 2243 01ff 28       		.uleb128 0x28
 2244 0200 8A8201   		.uleb128 0x410a
 2245 0203 00       		.byte	0
 2246 0204 02       		.uleb128 0x2
 2247 0205 18       		.uleb128 0x18
 2248 0206 9142     		.uleb128 0x2111
 2249 0208 18       		.uleb128 0x18
 2250 0209 00       		.byte	0
 2251 020a 00       		.byte	0
 2252 020b 29       		.uleb128 0x29
 2253 020c 898201   		.uleb128 0x4109
 2254 020f 00       		.byte	0
 2255 0210 11       		.uleb128 0x11
 2256 0211 01       		.uleb128 0x1
 2257 0212 31       		.uleb128 0x31
 2258 0213 13       		.uleb128 0x13
 2259 0214 00       		.byte	0
 2260 0215 00       		.byte	0
 2261 0216 2A       		.uleb128 0x2a
 2262 0217 898201   		.uleb128 0x4109
 2263 021a 01       		.byte	0x1
 2264 021b 11       		.uleb128 0x11
 2265 021c 01       		.uleb128 0x1
 2266 021d 31       		.uleb128 0x31
 2267 021e 13       		.uleb128 0x13
 2268 021f 01       		.uleb128 0x1
 2269 0220 13       		.uleb128 0x13
 2270 0221 00       		.byte	0
 2271 0222 00       		.byte	0
 2272 0223 2B       		.uleb128 0x2b
 2273 0224 2E       		.uleb128 0x2e
 2274 0225 00       		.byte	0
 2275 0226 3F       		.uleb128 0x3f
 2276 0227 19       		.uleb128 0x19
 2277 0228 3C       		.uleb128 0x3c
 2278 0229 19       		.uleb128 0x19
 2279 022a 6E       		.uleb128 0x6e
 2280 022b 0E       		.uleb128 0xe
ARM GAS  C:\Users\SALMAC~1\AppData\Local\Temp\ccqMZLdK.s 			page 41


 2281 022c 03       		.uleb128 0x3
 2282 022d 0E       		.uleb128 0xe
 2283 022e 00       		.byte	0
 2284 022f 00       		.byte	0
 2285 0230 2C       		.uleb128 0x2c
 2286 0231 2E       		.uleb128 0x2e
 2287 0232 00       		.byte	0
 2288 0233 3F       		.uleb128 0x3f
 2289 0234 19       		.uleb128 0x19
 2290 0235 3C       		.uleb128 0x3c
 2291 0236 19       		.uleb128 0x19
 2292 0237 6E       		.uleb128 0x6e
 2293 0238 0E       		.uleb128 0xe
 2294 0239 03       		.uleb128 0x3
 2295 023a 0E       		.uleb128 0xe
 2296 023b 3A       		.uleb128 0x3a
 2297 023c 0B       		.uleb128 0xb
 2298 023d 3B       		.uleb128 0x3b
 2299 023e 0B       		.uleb128 0xb
 2300 023f 00       		.byte	0
 2301 0240 00       		.byte	0
 2302 0241 00       		.byte	0
 2303              		.section	.debug_loc,"",%progbits
 2304              	.Ldebug_loc0:
 2305              	.LLST10:
 2306 0000 00000000 		.4byte	.LVL27
 2307 0004 08000000 		.4byte	.LVL28
 2308 0008 0100     		.2byte	0x1
 2309 000a 50       		.byte	0x50
 2310 000b 08000000 		.4byte	.LVL28
 2311 000f 38000000 		.4byte	.LFE5
 2312 0013 0400     		.2byte	0x4
 2313 0015 F3       		.byte	0xf3
 2314 0016 01       		.uleb128 0x1
 2315 0017 50       		.byte	0x50
 2316 0018 9F       		.byte	0x9f
 2317 0019 00000000 		.4byte	0
 2318 001d 00000000 		.4byte	0
 2319              	.LLST11:
 2320 0021 00000000 		.4byte	.LVL27
 2321 0025 0A000000 		.4byte	.LVL29
 2322 0029 0100     		.2byte	0x1
 2323 002b 51       		.byte	0x51
 2324 002c 0A000000 		.4byte	.LVL29
 2325 0030 38000000 		.4byte	.LFE5
 2326 0034 0400     		.2byte	0x4
 2327 0036 F3       		.byte	0xf3
 2328 0037 01       		.uleb128 0x1
 2329 0038 51       		.byte	0x51
 2330 0039 9F       		.byte	0x9f
 2331 003a 00000000 		.4byte	0
 2332 003e 00000000 		.4byte	0
 2333              	.LLST12:
 2334 0042 00000000 		.4byte	.LVL27
 2335 0046 12000000 		.4byte	.LVL31
 2336 004a 0100     		.2byte	0x1
 2337 004c 52       		.byte	0x52
ARM GAS  C:\Users\SALMAC~1\AppData\Local\Temp\ccqMZLdK.s 			page 42


 2338 004d 12000000 		.4byte	.LVL31
 2339 0051 38000000 		.4byte	.LFE5
 2340 0055 0400     		.2byte	0x4
 2341 0057 F3       		.byte	0xf3
 2342 0058 01       		.uleb128 0x1
 2343 0059 52       		.byte	0x52
 2344 005a 9F       		.byte	0x9f
 2345 005b 00000000 		.4byte	0
 2346 005f 00000000 		.4byte	0
 2347              	.LLST13:
 2348 0063 10000000 		.4byte	.LVL30
 2349 0067 1A000000 		.4byte	.LVL32
 2350 006b 0100     		.2byte	0x1
 2351 006d 50       		.byte	0x50
 2352 006e 1A000000 		.4byte	.LVL32
 2353 0072 1C000000 		.4byte	.LVL33
 2354 0076 0800     		.2byte	0x8
 2355 0078 F3       		.byte	0xf3
 2356 0079 01       		.uleb128 0x1
 2357 007a 50       		.byte	0x50
 2358 007b F3       		.byte	0xf3
 2359 007c 01       		.uleb128 0x1
 2360 007d 51       		.byte	0x51
 2361 007e 1C       		.byte	0x1c
 2362 007f 9F       		.byte	0x9f
 2363 0080 1C000000 		.4byte	.LVL33
 2364 0084 2D000000 		.4byte	.LVL34-1
 2365 0088 0100     		.2byte	0x1
 2366 008a 50       		.byte	0x50
 2367 008b 2D000000 		.4byte	.LVL34-1
 2368 008f 2E000000 		.4byte	.LVL34
 2369 0093 5300     		.2byte	0x53
 2370 0095 44       		.byte	0x44
 2371 0096 F3       		.byte	0xf3
 2372 0097 01       		.uleb128 0x1
 2373 0098 50       		.byte	0x50
 2374 0099 F3       		.byte	0xf3
 2375 009a 01       		.uleb128 0x1
 2376 009b 51       		.byte	0x51
 2377 009c 1C       		.byte	0x1c
 2378 009d 0A       		.byte	0xa
 2379 009e FFFF     		.2byte	0xffff
 2380 00a0 1A       		.byte	0x1a
 2381 00a1 1C       		.byte	0x1c
 2382 00a2 F3       		.byte	0xf3
 2383 00a3 01       		.uleb128 0x1
 2384 00a4 50       		.byte	0x50
 2385 00a5 F3       		.byte	0xf3
 2386 00a6 01       		.uleb128 0x1
 2387 00a7 51       		.byte	0x51
 2388 00a8 1C       		.byte	0x1c
 2389 00a9 0A       		.byte	0xa
 2390 00aa FFFF     		.2byte	0xffff
 2391 00ac 1A       		.byte	0x1a
 2392 00ad F3       		.byte	0xf3
 2393 00ae 01       		.uleb128 0x1
 2394 00af 52       		.byte	0x52
ARM GAS  C:\Users\SALMAC~1\AppData\Local\Temp\ccqMZLdK.s 			page 43


 2395 00b0 31       		.byte	0x31
 2396 00b1 29       		.byte	0x29
 2397 00b2 28       		.byte	0x28
 2398 00b3 0100     		.2byte	0x1
 2399 00b5 16       		.byte	0x16
 2400 00b6 13       		.byte	0x13
 2401 00b7 0A       		.byte	0xa
 2402 00b8 FFFF     		.2byte	0xffff
 2403 00ba 1A       		.byte	0x1a
 2404 00bb 44       		.byte	0x44
 2405 00bc F3       		.byte	0xf3
 2406 00bd 01       		.uleb128 0x1
 2407 00be 50       		.byte	0x50
 2408 00bf F3       		.byte	0xf3
 2409 00c0 01       		.uleb128 0x1
 2410 00c1 51       		.byte	0x51
 2411 00c2 1C       		.byte	0x1c
 2412 00c3 0A       		.byte	0xa
 2413 00c4 FFFF     		.2byte	0xffff
 2414 00c6 1A       		.byte	0x1a
 2415 00c7 1C       		.byte	0x1c
 2416 00c8 F3       		.byte	0xf3
 2417 00c9 01       		.uleb128 0x1
 2418 00ca 50       		.byte	0x50
 2419 00cb F3       		.byte	0xf3
 2420 00cc 01       		.uleb128 0x1
 2421 00cd 51       		.byte	0x51
 2422 00ce 1C       		.byte	0x1c
 2423 00cf 0A       		.byte	0xa
 2424 00d0 FFFF     		.2byte	0xffff
 2425 00d2 1A       		.byte	0x1a
 2426 00d3 F3       		.byte	0xf3
 2427 00d4 01       		.uleb128 0x1
 2428 00d5 52       		.byte	0x52
 2429 00d6 31       		.byte	0x31
 2430 00d7 29       		.byte	0x29
 2431 00d8 28       		.byte	0x28
 2432 00d9 0100     		.2byte	0x1
 2433 00db 16       		.byte	0x16
 2434 00dc 13       		.byte	0x13
 2435 00dd F3       		.byte	0xf3
 2436 00de 01       		.uleb128 0x1
 2437 00df 52       		.byte	0x52
 2438 00e0 31       		.byte	0x31
 2439 00e1 29       		.byte	0x29
 2440 00e2 28       		.byte	0x28
 2441 00e3 0100     		.2byte	0x1
 2442 00e5 16       		.byte	0x16
 2443 00e6 13       		.byte	0x13
 2444 00e7 9F       		.byte	0x9f
 2445 00e8 2E000000 		.4byte	.LVL34
 2446 00ec 31000000 		.4byte	.LVL35-1
 2447 00f0 0100     		.2byte	0x1
 2448 00f2 50       		.byte	0x50
 2449 00f3 31000000 		.4byte	.LVL35-1
 2450 00f7 38000000 		.4byte	.LFE5
 2451 00fb 5300     		.2byte	0x53
ARM GAS  C:\Users\SALMAC~1\AppData\Local\Temp\ccqMZLdK.s 			page 44


 2452 00fd 44       		.byte	0x44
 2453 00fe F3       		.byte	0xf3
 2454 00ff 01       		.uleb128 0x1
 2455 0100 50       		.byte	0x50
 2456 0101 F3       		.byte	0xf3
 2457 0102 01       		.uleb128 0x1
 2458 0103 51       		.byte	0x51
 2459 0104 1C       		.byte	0x1c
 2460 0105 0A       		.byte	0xa
 2461 0106 FFFF     		.2byte	0xffff
 2462 0108 1A       		.byte	0x1a
 2463 0109 1C       		.byte	0x1c
 2464 010a F3       		.byte	0xf3
 2465 010b 01       		.uleb128 0x1
 2466 010c 50       		.byte	0x50
 2467 010d F3       		.byte	0xf3
 2468 010e 01       		.uleb128 0x1
 2469 010f 51       		.byte	0x51
 2470 0110 1C       		.byte	0x1c
 2471 0111 0A       		.byte	0xa
 2472 0112 FFFF     		.2byte	0xffff
 2473 0114 1A       		.byte	0x1a
 2474 0115 F3       		.byte	0xf3
 2475 0116 01       		.uleb128 0x1
 2476 0117 52       		.byte	0x52
 2477 0118 31       		.byte	0x31
 2478 0119 29       		.byte	0x29
 2479 011a 28       		.byte	0x28
 2480 011b 0100     		.2byte	0x1
 2481 011d 16       		.byte	0x16
 2482 011e 13       		.byte	0x13
 2483 011f 0A       		.byte	0xa
 2484 0120 FFFF     		.2byte	0xffff
 2485 0122 1A       		.byte	0x1a
 2486 0123 44       		.byte	0x44
 2487 0124 F3       		.byte	0xf3
 2488 0125 01       		.uleb128 0x1
 2489 0126 50       		.byte	0x50
 2490 0127 F3       		.byte	0xf3
 2491 0128 01       		.uleb128 0x1
 2492 0129 51       		.byte	0x51
 2493 012a 1C       		.byte	0x1c
 2494 012b 0A       		.byte	0xa
 2495 012c FFFF     		.2byte	0xffff
 2496 012e 1A       		.byte	0x1a
 2497 012f 1C       		.byte	0x1c
 2498 0130 F3       		.byte	0xf3
 2499 0131 01       		.uleb128 0x1
 2500 0132 50       		.byte	0x50
 2501 0133 F3       		.byte	0xf3
 2502 0134 01       		.uleb128 0x1
 2503 0135 51       		.byte	0x51
 2504 0136 1C       		.byte	0x1c
 2505 0137 0A       		.byte	0xa
 2506 0138 FFFF     		.2byte	0xffff
 2507 013a 1A       		.byte	0x1a
 2508 013b F3       		.byte	0xf3
ARM GAS  C:\Users\SALMAC~1\AppData\Local\Temp\ccqMZLdK.s 			page 45


 2509 013c 01       		.uleb128 0x1
 2510 013d 52       		.byte	0x52
 2511 013e 31       		.byte	0x31
 2512 013f 29       		.byte	0x29
 2513 0140 28       		.byte	0x28
 2514 0141 0100     		.2byte	0x1
 2515 0143 16       		.byte	0x16
 2516 0144 13       		.byte	0x13
 2517 0145 F3       		.byte	0xf3
 2518 0146 01       		.uleb128 0x1
 2519 0147 52       		.byte	0x52
 2520 0148 31       		.byte	0x31
 2521 0149 29       		.byte	0x29
 2522 014a 28       		.byte	0x28
 2523 014b 0100     		.2byte	0x1
 2524 014d 16       		.byte	0x16
 2525 014e 13       		.byte	0x13
 2526 014f 9F       		.byte	0x9f
 2527 0150 00000000 		.4byte	0
 2528 0154 00000000 		.4byte	0
 2529              	.LLST5:
 2530 0158 00000000 		.4byte	.LVL16
 2531 015c 14000000 		.4byte	.LVL17
 2532 0160 0100     		.2byte	0x1
 2533 0162 50       		.byte	0x50
 2534 0163 14000000 		.4byte	.LVL17
 2535 0167 2C000000 		.4byte	.LVL22
 2536 016b 0400     		.2byte	0x4
 2537 016d F3       		.byte	0xf3
 2538 016e 01       		.uleb128 0x1
 2539 016f 50       		.byte	0x50
 2540 0170 9F       		.byte	0x9f
 2541 0171 2C000000 		.4byte	.LVL22
 2542 0175 2E000000 		.4byte	.LVL23
 2543 0179 0100     		.2byte	0x1
 2544 017b 50       		.byte	0x50
 2545 017c 2E000000 		.4byte	.LVL23
 2546 0180 3C000000 		.4byte	.LFE4
 2547 0184 0400     		.2byte	0x4
 2548 0186 F3       		.byte	0xf3
 2549 0187 01       		.uleb128 0x1
 2550 0188 50       		.byte	0x50
 2551 0189 9F       		.byte	0x9f
 2552 018a 00000000 		.4byte	0
 2553 018e 00000000 		.4byte	0
 2554              	.LLST6:
 2555 0192 00000000 		.4byte	.LVL16
 2556 0196 22000000 		.4byte	.LVL21
 2557 019a 0100     		.2byte	0x1
 2558 019c 51       		.byte	0x51
 2559 019d 22000000 		.4byte	.LVL21
 2560 01a1 2C000000 		.4byte	.LVL22
 2561 01a5 0400     		.2byte	0x4
 2562 01a7 F3       		.byte	0xf3
 2563 01a8 01       		.uleb128 0x1
 2564 01a9 51       		.byte	0x51
 2565 01aa 9F       		.byte	0x9f
ARM GAS  C:\Users\SALMAC~1\AppData\Local\Temp\ccqMZLdK.s 			page 46


 2566 01ab 2C000000 		.4byte	.LVL22
 2567 01af 35000000 		.4byte	.LVL26-1
 2568 01b3 0100     		.2byte	0x1
 2569 01b5 51       		.byte	0x51
 2570 01b6 35000000 		.4byte	.LVL26-1
 2571 01ba 3C000000 		.4byte	.LFE4
 2572 01be 0400     		.2byte	0x4
 2573 01c0 F3       		.byte	0xf3
 2574 01c1 01       		.uleb128 0x1
 2575 01c2 51       		.byte	0x51
 2576 01c3 9F       		.byte	0x9f
 2577 01c4 00000000 		.4byte	0
 2578 01c8 00000000 		.4byte	0
 2579              	.LLST7:
 2580 01cc 00000000 		.4byte	.LVL16
 2581 01d0 1A000000 		.4byte	.LVL19
 2582 01d4 0100     		.2byte	0x1
 2583 01d6 52       		.byte	0x52
 2584 01d7 1A000000 		.4byte	.LVL19
 2585 01db 2C000000 		.4byte	.LVL22
 2586 01df 0400     		.2byte	0x4
 2587 01e1 F3       		.byte	0xf3
 2588 01e2 01       		.uleb128 0x1
 2589 01e3 52       		.byte	0x52
 2590 01e4 9F       		.byte	0x9f
 2591 01e5 2C000000 		.4byte	.LVL22
 2592 01e9 32000000 		.4byte	.LVL25
 2593 01ed 0100     		.2byte	0x1
 2594 01ef 52       		.byte	0x52
 2595 01f0 32000000 		.4byte	.LVL25
 2596 01f4 3C000000 		.4byte	.LFE4
 2597 01f8 0400     		.2byte	0x4
 2598 01fa F3       		.byte	0xf3
 2599 01fb 01       		.uleb128 0x1
 2600 01fc 52       		.byte	0x52
 2601 01fd 9F       		.byte	0x9f
 2602 01fe 00000000 		.4byte	0
 2603 0202 00000000 		.4byte	0
 2604              	.LLST8:
 2605 0206 00000000 		.4byte	.LVL16
 2606 020a 1C000000 		.4byte	.LVL20
 2607 020e 0100     		.2byte	0x1
 2608 0210 53       		.byte	0x53
 2609 0211 1C000000 		.4byte	.LVL20
 2610 0215 2C000000 		.4byte	.LVL22
 2611 0219 0400     		.2byte	0x4
 2612 021b F3       		.byte	0xf3
 2613 021c 01       		.uleb128 0x1
 2614 021d 53       		.byte	0x53
 2615 021e 9F       		.byte	0x9f
 2616 021f 2C000000 		.4byte	.LVL22
 2617 0223 32000000 		.4byte	.LVL25
 2618 0227 0100     		.2byte	0x1
 2619 0229 53       		.byte	0x53
 2620 022a 32000000 		.4byte	.LVL25
 2621 022e 3C000000 		.4byte	.LFE4
 2622 0232 0400     		.2byte	0x4
ARM GAS  C:\Users\SALMAC~1\AppData\Local\Temp\ccqMZLdK.s 			page 47


 2623 0234 F3       		.byte	0xf3
 2624 0235 01       		.uleb128 0x1
 2625 0236 53       		.byte	0x53
 2626 0237 9F       		.byte	0x9f
 2627 0238 00000000 		.4byte	0
 2628 023c 00000000 		.4byte	0
 2629              	.LLST9:
 2630 0240 18000000 		.4byte	.LVL18
 2631 0244 2B000000 		.4byte	.LVL22-1
 2632 0248 0100     		.2byte	0x1
 2633 024a 50       		.byte	0x50
 2634 024b 30000000 		.4byte	.LVL24
 2635 024f 35000000 		.4byte	.LVL26-1
 2636 0253 0100     		.2byte	0x1
 2637 0255 50       		.byte	0x50
 2638 0256 00000000 		.4byte	0
 2639 025a 00000000 		.4byte	0
 2640              	.LLST0:
 2641 025e 00000000 		.4byte	.LVL0
 2642 0262 14000000 		.4byte	.LVL1
 2643 0266 0100     		.2byte	0x1
 2644 0268 50       		.byte	0x50
 2645 0269 14000000 		.4byte	.LVL1
 2646 026d 52000000 		.4byte	.LVL5
 2647 0271 0100     		.2byte	0x1
 2648 0273 54       		.byte	0x54
 2649 0274 76000000 		.4byte	.LVL9
 2650 0278 C6000000 		.4byte	.LVL14
 2651 027c 0100     		.2byte	0x1
 2652 027e 54       		.byte	0x54
 2653 027f 00000000 		.4byte	0
 2654 0283 00000000 		.4byte	0
 2655              	.LLST1:
 2656 0287 00000000 		.4byte	.LVL0
 2657 028b 41000000 		.4byte	.LVL3-1
 2658 028f 0100     		.2byte	0x1
 2659 0291 51       		.byte	0x51
 2660 0292 41000000 		.4byte	.LVL3-1
 2661 0296 76000000 		.4byte	.LVL9
 2662 029a 0400     		.2byte	0x4
 2663 029c F3       		.byte	0xf3
 2664 029d 01       		.uleb128 0x1
 2665 029e 51       		.byte	0x51
 2666 029f 9F       		.byte	0x9f
 2667 02a0 76000000 		.4byte	.LVL9
 2668 02a4 79000000 		.4byte	.LVL10-1
 2669 02a8 0100     		.2byte	0x1
 2670 02aa 51       		.byte	0x51
 2671 02ab 79000000 		.4byte	.LVL10-1
 2672 02af DC000000 		.4byte	.LFE3
 2673 02b3 0400     		.2byte	0x4
 2674 02b5 F3       		.byte	0xf3
 2675 02b6 01       		.uleb128 0x1
 2676 02b7 51       		.byte	0x51
 2677 02b8 9F       		.byte	0x9f
 2678 02b9 00000000 		.4byte	0
 2679 02bd 00000000 		.4byte	0
ARM GAS  C:\Users\SALMAC~1\AppData\Local\Temp\ccqMZLdK.s 			page 48


 2680              	.LLST2:
 2681 02c1 58000000 		.4byte	.LVL6
 2682 02c5 76000000 		.4byte	.LVL9
 2683 02c9 0100     		.2byte	0x1
 2684 02cb 58       		.byte	0x58
 2685 02cc A6000000 		.4byte	.LVL11
 2686 02d0 DC000000 		.4byte	.LFE3
 2687 02d4 0100     		.2byte	0x1
 2688 02d6 58       		.byte	0x58
 2689 02d7 00000000 		.4byte	0
 2690 02db 00000000 		.4byte	0
 2691              	.LLST3:
 2692 02df 5A000000 		.4byte	.LVL7
 2693 02e3 5F000000 		.4byte	.LVL8-1
 2694 02e7 0100     		.2byte	0x1
 2695 02e9 51       		.byte	0x51
 2696 02ea C4000000 		.4byte	.LVL13
 2697 02ee C6000000 		.4byte	.LVL14
 2698 02f2 0100     		.2byte	0x1
 2699 02f4 51       		.byte	0x51
 2700 02f5 00000000 		.4byte	0
 2701 02f9 00000000 		.4byte	0
 2702              	.LLST4:
 2703 02fd 3C000000 		.4byte	.LVL2
 2704 0301 5A000000 		.4byte	.LVL7
 2705 0305 0100     		.2byte	0x1
 2706 0307 55       		.byte	0x55
 2707 0308 76000000 		.4byte	.LVL9
 2708 030c C6000000 		.4byte	.LVL14
 2709 0310 0100     		.2byte	0x1
 2710 0312 55       		.byte	0x55
 2711 0313 00000000 		.4byte	0
 2712 0317 00000000 		.4byte	0
 2713              		.section	.debug_aranges,"",%progbits
 2714 0000 2C000000 		.4byte	0x2c
 2715 0004 0200     		.2byte	0x2
 2716 0006 00000000 		.4byte	.Ldebug_info0
 2717 000a 04       		.byte	0x4
 2718 000b 00       		.byte	0
 2719 000c 0000     		.2byte	0
 2720 000e 0000     		.2byte	0
 2721 0010 00000000 		.4byte	.LFB3
 2722 0014 DC000000 		.4byte	.LFE3-.LFB3
 2723 0018 00000000 		.4byte	.LFB4
 2724 001c 3C000000 		.4byte	.LFE4-.LFB4
 2725 0020 00000000 		.4byte	.LFB5
 2726 0024 38000000 		.4byte	.LFE5-.LFB5
 2727 0028 00000000 		.4byte	0
 2728 002c 00000000 		.4byte	0
 2729              		.section	.debug_ranges,"",%progbits
 2730              	.Ldebug_ranges0:
 2731 0000 00000000 		.4byte	.LFB3
 2732 0004 DC000000 		.4byte	.LFE3
 2733 0008 00000000 		.4byte	.LFB4
 2734 000c 3C000000 		.4byte	.LFE4
 2735 0010 00000000 		.4byte	.LFB5
 2736 0014 38000000 		.4byte	.LFE5
ARM GAS  C:\Users\SALMAC~1\AppData\Local\Temp\ccqMZLdK.s 			page 49


 2737 0018 00000000 		.4byte	0
 2738 001c 00000000 		.4byte	0
 2739              		.section	.debug_line,"",%progbits
 2740              	.Ldebug_line0:
 2741 0000 7E030000 		.section	.debug_str,"MS",%progbits,1
 2741      0200FE02 
 2741      00000201 
 2741      FB0E0D00 
 2741      01010101 
 2742              	.LASF40:
 2743 0000 5F64736F 		.ascii	"_dso_handle\000"
 2743      5F68616E 
 2743      646C6500 
 2744              	.LASF135:
 2745 000c 464F4C4C 		.ascii	"FOLLOW_WALL\000"
 2745      4F575F57 
 2745      414C4C00 
 2746              	.LASF48:
 2747 0018 5F73697A 		.ascii	"_size\000"
 2747      6500
 2748              	.LASF93:
 2749 001e 5F72616E 		.ascii	"_rand48\000"
 2749      64343800 
 2750              	.LASF149:
 2751 0026 72656775 		.ascii	"regulation_type\000"
 2751      6C617469 
 2751      6F6E5F74 
 2751      79706500 
 2752              	.LASF72:
 2753 0036 5F656D65 		.ascii	"_emergency\000"
 2753      7267656E 
 2753      637900
 2754              	.LASF157:
 2755 0041 72656775 		.ascii	"regulator.c\000"
 2755      6C61746F 
 2755      722E6300 
 2756              	.LASF2:
 2757 004d 5F5F7569 		.ascii	"__uint8_t\000"
 2757      6E74385F 
 2757      7400
 2758              	.LASF153:
 2759 0057 6765745F 		.ascii	"get_right_speed\000"
 2759      72696768 
 2759      745F7370 
 2759      65656400 
 2760              	.LASF143:
 2761 0067 72656775 		.ascii	"regulator_difference\000"
 2761      6C61746F 
 2761      725F6469 
 2761      66666572 
 2761      656E6365 
 2762              	.LASF109:
 2763 007c 5F676574 		.ascii	"_getdate_err\000"
 2763      64617465 
 2763      5F657272 
 2763      00
 2764              	.LASF62:
ARM GAS  C:\Users\SALMAC~1\AppData\Local\Temp\ccqMZLdK.s 			page 50


 2765 0089 5F646174 		.ascii	"_data\000"
 2765      6100
 2766              	.LASF141:
 2767 008f 64696666 		.ascii	"difference\000"
 2767      6572656E 
 2767      636500
 2768              	.LASF154:
 2769 009a 6765745F 		.ascii	"get_left_speed\000"
 2769      6C656674 
 2769      5F737065 
 2769      656400
 2770              	.LASF113:
 2771 00a9 5F776372 		.ascii	"_wcrtomb_state\000"
 2771      746F6D62 
 2771      5F737461 
 2771      746500
 2772              	.LASF114:
 2773 00b8 5F776373 		.ascii	"_wcsrtombs_state\000"
 2773      72746F6D 
 2773      62735F73 
 2773      74617465 
 2773      00
 2774              	.LASF9:
 2775 00c9 6C6F6E67 		.ascii	"long long unsigned int\000"
 2775      206C6F6E 
 2775      6720756E 
 2775      7369676E 
 2775      65642069 
 2776              	.LASF155:
 2777 00e0 7365745F 		.ascii	"set_speed\000"
 2777      73706565 
 2777      6400
 2778              	.LASF52:
 2779 00ea 5F6C6266 		.ascii	"_lbfsize\000"
 2779      73697A65 
 2779      00
 2780              	.LASF126:
 2781 00f3 46524F4E 		.ascii	"FRONT_RIGHT\000"
 2781      545F5249 
 2781      47485400 
 2782              	.LASF120:
 2783 00ff 5F5F6C6F 		.ascii	"__locale_t\000"
 2783      63616C65 
 2783      5F7400
 2784              	.LASF150:
 2785 010a 72696768 		.ascii	"right_speed\000"
 2785      745F7370 
 2785      65656400 
 2786              	.LASF111:
 2787 0116 5F6D6272 		.ascii	"_mbrtowc_state\000"
 2787      746F7763 
 2787      5F737461 
 2787      746500
 2788              	.LASF29:
 2789 0125 5F5F746D 		.ascii	"__tm_sec\000"
 2789      5F736563 
 2789      00
ARM GAS  C:\Users\SALMAC~1\AppData\Local\Temp\ccqMZLdK.s 			page 51


 2790              	.LASF124:
 2791 012e 696E7431 		.ascii	"int16_t\000"
 2791      365F7400 
 2792              	.LASF8:
 2793 0136 6C6F6E67 		.ascii	"long long int\000"
 2793      206C6F6E 
 2793      6720696E 
 2793      7400
 2794              	.LASF0:
 2795 0144 7369676E 		.ascii	"signed char\000"
 2795      65642063 
 2795      68617200 
 2796              	.LASF58:
 2797 0150 5F756275 		.ascii	"_ubuf\000"
 2797      6600
 2798              	.LASF47:
 2799 0156 5F626173 		.ascii	"_base\000"
 2799      6500
 2800              	.LASF31:
 2801 015c 5F5F746D 		.ascii	"__tm_hour\000"
 2801      5F686F75 
 2801      7200
 2802              	.LASF87:
 2803 0166 5F5F7366 		.ascii	"__sf\000"
 2803      00
 2804              	.LASF38:
 2805 016b 5F6F6E5F 		.ascii	"_on_exit_args\000"
 2805      65786974 
 2805      5F617267 
 2805      7300
 2806              	.LASF53:
 2807 0179 5F636F6F 		.ascii	"_cookie\000"
 2807      6B696500 
 2808              	.LASF86:
 2809 0181 5F5F7367 		.ascii	"__sglue\000"
 2809      6C756500 
 2810              	.LASF6:
 2811 0189 6C6F6E67 		.ascii	"long int\000"
 2811      20696E74 
 2811      00
 2812              	.LASF50:
 2813 0192 5F666C61 		.ascii	"_flags\000"
 2813      677300
 2814              	.LASF42:
 2815 0199 5F69735F 		.ascii	"_is_cxa\000"
 2815      63786100 
 2816              	.LASF68:
 2817 01a1 5F737464 		.ascii	"_stdin\000"
 2817      696E00
 2818              	.LASF60:
 2819 01a8 5F626C6B 		.ascii	"_blksize\000"
 2819      73697A65 
 2819      00
 2820              	.LASF82:
 2821 01b1 5F637674 		.ascii	"_cvtbuf\000"
 2821      62756600 
 2822              	.LASF61:
ARM GAS  C:\Users\SALMAC~1\AppData\Local\Temp\ccqMZLdK.s 			page 52


 2823 01b9 5F6F6666 		.ascii	"_offset\000"
 2823      73657400 
 2824              	.LASF112:
 2825 01c1 5F6D6273 		.ascii	"_mbsrtowcs_state\000"
 2825      72746F77 
 2825      63735F73 
 2825      74617465 
 2825      00
 2826              	.LASF110:
 2827 01d2 5F6D6272 		.ascii	"_mbrlen_state\000"
 2827      6C656E5F 
 2827      73746174 
 2827      6500
 2828              	.LASF39:
 2829 01e0 5F666E61 		.ascii	"_fnargs\000"
 2829      72677300 
 2830              	.LASF45:
 2831 01e8 5F666E73 		.ascii	"_fns\000"
 2831      00
 2832              	.LASF25:
 2833 01ed 5F736967 		.ascii	"_sign\000"
 2833      6E00
 2834              	.LASF3:
 2835 01f3 5F5F696E 		.ascii	"__int16_t\000"
 2835      7431365F 
 2835      7400
 2836              	.LASF70:
 2837 01fd 5F737464 		.ascii	"_stderr\000"
 2837      65727200 
 2838              	.LASF27:
 2839 0205 5F426967 		.ascii	"_Bigint\000"
 2839      696E7400 
 2840              	.LASF101:
 2841 020d 5F67616D 		.ascii	"_gamma_signgam\000"
 2841      6D615F73 
 2841      69676E67 
 2841      616D00
 2842              	.LASF133:
 2843 021c 46524F4E 		.ascii	"FRONT_LEFT\000"
 2843      545F4C45 
 2843      465400
 2844              	.LASF54:
 2845 0227 5F726561 		.ascii	"_read\000"
 2845      6400
 2846              	.LASF78:
 2847 022d 5F726573 		.ascii	"_result_k\000"
 2847      756C745F 
 2847      6B00
 2848              	.LASF28:
 2849 0237 5F5F746D 		.ascii	"__tm\000"
 2849      00
 2850              	.LASF10:
 2851 023c 756E7369 		.ascii	"unsigned int\000"
 2851      676E6564 
 2851      20696E74 
 2851      00
 2852              	.LASF156:
ARM GAS  C:\Users\SALMAC~1\AppData\Local\Temp\ccqMZLdK.s 			page 53


 2853 0249 474E5520 		.ascii	"GNU C11 7.2.1 20170904 (release) [ARM/embedded-7-br"
 2853      43313120 
 2853      372E322E 
 2853      31203230 
 2853      31373039 
 2854 027c 616E6368 		.ascii	"anch revision 255204] -mcpu=cortex-m4 -mfloat-abi=h"
 2854      20726576 
 2854      6973696F 
 2854      6E203235 
 2854      35323034 
 2855 02af 61726420 		.ascii	"ard -mfpu=fpv4-sp-d16 -mno-thumb-interwork -mthumb "
 2855      2D6D6670 
 2855      753D6670 
 2855      76342D73 
 2855      702D6431 
 2856 02e2 2D676764 		.ascii	"-ggdb -O2 -fomit-frame-pointer -falign-functions=16"
 2856      62202D4F 
 2856      32202D66 
 2856      6F6D6974 
 2856      2D667261 
 2857 0315 202D666E 		.ascii	" -fno-strict-aliasing -fstack-protector-all -ffunct"
 2857      6F2D7374 
 2857      72696374 
 2857      2D616C69 
 2857      6173696E 
 2858 0348 696F6E2D 		.ascii	"ion-sections -fdata-sections -fno-common -fsingle-p"
 2858      73656374 
 2858      696F6E73 
 2858      202D6664 
 2858      6174612D 
 2859 037b 72656369 		.ascii	"recision-constant\000"
 2859      73696F6E 
 2859      2D636F6E 
 2859      7374616E 
 2859      7400
 2860              	.LASF17:
 2861 038d 5F5F7763 		.ascii	"__wchb\000"
 2861      686200
 2862              	.LASF69:
 2863 0394 5F737464 		.ascii	"_stdout\000"
 2863      6F757400 
 2864              	.LASF81:
 2865 039c 5F637674 		.ascii	"_cvtlen\000"
 2865      6C656E00 
 2866              	.LASF7:
 2867 03a4 6C6F6E67 		.ascii	"long unsigned int\000"
 2867      20756E73 
 2867      69676E65 
 2867      6420696E 
 2867      7400
 2868              	.LASF51:
 2869 03b6 5F66696C 		.ascii	"_file\000"
 2869      6500
 2870              	.LASF142:
 2871 03bc 72656775 		.ascii	"regulator_follow_wall\000"
 2871      6C61746F 
 2871      725F666F 
ARM GAS  C:\Users\SALMAC~1\AppData\Local\Temp\ccqMZLdK.s 			page 54


 2871      6C6C6F77 
 2871      5F77616C 
 2872              	.LASF132:
 2873 03d2 46524F4E 		.ascii	"FRONT_LEFT_45DEG\000"
 2873      545F4C45 
 2873      46545F34 
 2873      35444547 
 2873      00
 2874              	.LASF91:
 2875 03e3 5F6E696F 		.ascii	"_niobs\000"
 2875      627300
 2876              	.LASF5:
 2877 03ea 73686F72 		.ascii	"short unsigned int\000"
 2877      7420756E 
 2877      7369676E 
 2877      65642069 
 2877      6E7400
 2878              	.LASF84:
 2879 03fd 5F617465 		.ascii	"_atexit0\000"
 2879      78697430 
 2879      00
 2880              	.LASF108:
 2881 0406 5F736967 		.ascii	"_signal_buf\000"
 2881      6E616C5F 
 2881      62756600 
 2882              	.LASF99:
 2883 0412 5F617363 		.ascii	"_asctime_buf\000"
 2883      74696D65 
 2883      5F627566 
 2883      00
 2884              	.LASF77:
 2885 041f 5F726573 		.ascii	"_result\000"
 2885      756C7400 
 2886              	.LASF16:
 2887 0427 5F5F7763 		.ascii	"__wch\000"
 2887      6800
 2888              	.LASF12:
 2889 042d 5F4C4F43 		.ascii	"_LOCK_T\000"
 2889      4B5F5400 
 2890              	.LASF15:
 2891 0435 77696E74 		.ascii	"wint_t\000"
 2891      5F7400
 2892              	.LASF63:
 2893 043c 5F6C6F63 		.ascii	"_lock\000"
 2893      6B00
 2894              	.LASF65:
 2895 0442 5F666C61 		.ascii	"_flags2\000"
 2895      67733200 
 2896              	.LASF134:
 2897 044a 44494646 		.ascii	"DIFFERENCE\000"
 2897      4552454E 
 2897      434500
 2898              	.LASF127:
 2899 0455 46524F4E 		.ascii	"FRONT_RIGHT_45DEG\000"
 2899      545F5249 
 2899      4748545F 
 2899      34354445 
ARM GAS  C:\Users\SALMAC~1\AppData\Local\Temp\ccqMZLdK.s 			page 55


 2899      4700
 2900              	.LASF55:
 2901 0467 5F777269 		.ascii	"_write\000"
 2901      746500
 2902              	.LASF34:
 2903 046e 5F5F746D 		.ascii	"__tm_year\000"
 2903      5F796561 
 2903      7200
 2904              	.LASF11:
 2905 0478 6C6F6E67 		.ascii	"long double\000"
 2905      20646F75 
 2905      626C6500 
 2906              	.LASF116:
 2907 0484 5F6E6578 		.ascii	"_nextf\000"
 2907      746600
 2908              	.LASF137:
 2909 048b 72656665 		.ascii	"reference_value\000"
 2909      72656E63 
 2909      655F7661 
 2909      6C756500 
 2910              	.LASF33:
 2911 049b 5F5F746D 		.ascii	"__tm_mon\000"
 2911      5F6D6F6E 
 2911      00
 2912              	.LASF158:
 2913 04a4 433A5C55 		.ascii	"C:\\Users\\Salma Chatagny\\Documents\\EPFL\\BA6\\Mi"
 2913      73657273 
 2913      5C53616C 
 2913      6D612043 
 2913      68617461 
 2914 04d1 63726F69 		.ascii	"croinformatique\\TPs\\TPs_git\\TP6_Miniprojet\\Mini"
 2914      6E666F72 
 2914      6D617469 
 2914      7175655C 
 2914      5450735C 
 2915 0500 70726F6A 		.ascii	"projet\000"
 2915      657400
 2916              	.LASF43:
 2917 0507 5F617465 		.ascii	"_atexit\000"
 2917      78697400 
 2918              	.LASF125:
 2919 050f 7375626F 		.ascii	"suboptarg\000"
 2919      70746172 
 2919      6700
 2920              	.LASF75:
 2921 0519 5F5F7364 		.ascii	"__sdidinit\000"
 2921      6964696E 
 2921      697400
 2922              	.LASF13:
 2923 0524 5F6F6666 		.ascii	"_off_t\000"
 2923      5F7400
 2924              	.LASF136:
 2925 052b 666C6F61 		.ascii	"float\000"
 2925      7400
 2926              	.LASF138:
 2927 0531 63757272 		.ascii	"current_value\000"
 2927      656E745F 
ARM GAS  C:\Users\SALMAC~1\AppData\Local\Temp\ccqMZLdK.s 			page 56


 2927      76616C75 
 2927      6500
 2928              	.LASF80:
 2929 053f 5F667265 		.ascii	"_freelist\000"
 2929      656C6973 
 2929      7400
 2930              	.LASF106:
 2931 0549 5F776374 		.ascii	"_wctomb_state\000"
 2931      6F6D625F 
 2931      73746174 
 2931      6500
 2932              	.LASF151:
 2933 0557 6C656674 		.ascii	"left_speed\000"
 2933      5F737065 
 2933      656400
 2934              	.LASF147:
 2935 0562 66726F6E 		.ascii	"front_left_value\000"
 2935      745F6C65 
 2935      66745F76 
 2935      616C7565 
 2935      00
 2936              	.LASF146:
 2937 0573 66726F6E 		.ascii	"front_right_value\000"
 2937      745F7269 
 2937      6768745F 
 2937      76616C75 
 2937      6500
 2938              	.LASF1:
 2939 0585 756E7369 		.ascii	"unsigned char\000"
 2939      676E6564 
 2939      20636861 
 2939      7200
 2940              	.LASF83:
 2941 0593 5F6E6577 		.ascii	"_new\000"
 2941      00
 2942              	.LASF152:
 2943 0598 64657269 		.ascii	"derivate\000"
 2943      76617465 
 2943      00
 2944              	.LASF115:
 2945 05a1 5F685F65 		.ascii	"_h_errno\000"
 2945      72726E6F 
 2945      00
 2946              	.LASF4:
 2947 05aa 73686F72 		.ascii	"short int\000"
 2947      7420696E 
 2947      7400
 2948              	.LASF36:
 2949 05b4 5F5F746D 		.ascii	"__tm_yday\000"
 2949      5F796461 
 2949      7900
 2950              	.LASF46:
 2951 05be 5F5F7362 		.ascii	"__sbuf\000"
 2951      756600
 2952              	.LASF92:
 2953 05c5 5F696F62 		.ascii	"_iobs\000"
 2953      7300
ARM GAS  C:\Users\SALMAC~1\AppData\Local\Temp\ccqMZLdK.s 			page 57


 2954              	.LASF89:
 2955 05cb 5F5F4649 		.ascii	"__FILE\000"
 2955      4C4500
 2956              	.LASF20:
 2957 05d2 5F6D6273 		.ascii	"_mbstate_t\000"
 2957      74617465 
 2957      5F7400
 2958              	.LASF49:
 2959 05dd 5F5F7346 		.ascii	"__sFILE\000"
 2959      494C4500 
 2960              	.LASF64:
 2961 05e5 5F6D6273 		.ascii	"_mbstate\000"
 2961      74617465 
 2961      00
 2962              	.LASF102:
 2963 05ee 5F72616E 		.ascii	"_rand_next\000"
 2963      645F6E65 
 2963      787400
 2964              	.LASF104:
 2965 05f9 5F6D626C 		.ascii	"_mblen_state\000"
 2965      656E5F73 
 2965      74617465 
 2965      00
 2966              	.LASF71:
 2967 0606 5F696E63 		.ascii	"_inc\000"
 2967      00
 2968              	.LASF44:
 2969 060b 5F696E64 		.ascii	"_ind\000"
 2969      00
 2970              	.LASF128:
 2971 0610 52494748 		.ascii	"RIGHT_SENS\000"
 2971      545F5345 
 2971      4E5300
 2972              	.LASF74:
 2973 061b 5F6C6F63 		.ascii	"_locale\000"
 2973      616C6500 
 2974              	.LASF76:
 2975 0623 5F5F636C 		.ascii	"__cleanup\000"
 2975      65616E75 
 2975      7000
 2976              	.LASF73:
 2977 062d 5F756E73 		.ascii	"_unspecified_locale_info\000"
 2977      70656369 
 2977      66696564 
 2977      5F6C6F63 
 2977      616C655F 
 2978              	.LASF159:
 2979 0646 5F5F7374 		.ascii	"__stack_chk_fail\000"
 2979      61636B5F 
 2979      63686B5F 
 2979      6661696C 
 2979      00
 2980              	.LASF24:
 2981 0657 5F6D6178 		.ascii	"_maxwds\000"
 2981      77647300 
 2982              	.LASF66:
 2983 065f 5F726565 		.ascii	"_reent\000"
ARM GAS  C:\Users\SALMAC~1\AppData\Local\Temp\ccqMZLdK.s 			page 58


 2983      6E7400
 2984              	.LASF94:
 2985 0666 5F736565 		.ascii	"_seed\000"
 2985      6400
 2986              	.LASF18:
 2987 066c 5F5F636F 		.ascii	"__count\000"
 2987      756E7400 
 2988              	.LASF119:
 2989 0674 5F5F6C6F 		.ascii	"__lock\000"
 2989      636B00
 2990              	.LASF19:
 2991 067b 5F5F7661 		.ascii	"__value\000"
 2991      6C756500 
 2992              	.LASF56:
 2993 0683 5F736565 		.ascii	"_seek\000"
 2993      6B00
 2994              	.LASF144:
 2995 0689 66726F6E 		.ascii	"front_right_45deg_value\000"
 2995      745F7269 
 2995      6768745F 
 2995      34356465 
 2995      675F7661 
 2996              	.LASF121:
 2997 06a1 5F696D70 		.ascii	"_impure_ptr\000"
 2997      7572655F 
 2997      70747200 
 2998              	.LASF14:
 2999 06ad 5F66706F 		.ascii	"_fpos_t\000"
 2999      735F7400 
 3000              	.LASF67:
 3001 06b5 5F657272 		.ascii	"_errno\000"
 3001      6E6F00
 3002              	.LASF88:
 3003 06bc 63686172 		.ascii	"char\000"
 3003      00
 3004              	.LASF30:
 3005 06c1 5F5F746D 		.ascii	"__tm_min\000"
 3005      5F6D696E 
 3005      00
 3006              	.LASF123:
 3007 06ca 75696E74 		.ascii	"uint8_t\000"
 3007      385F7400 
 3008              	.LASF95:
 3009 06d2 5F6D756C 		.ascii	"_mult\000"
 3009      7400
 3010              	.LASF23:
 3011 06d8 5F6E6578 		.ascii	"_next\000"
 3011      7400
 3012              	.LASF98:
 3013 06de 5F737472 		.ascii	"_strtok_last\000"
 3013      746F6B5F 
 3013      6C617374 
 3013      00
 3014              	.LASF41:
 3015 06eb 5F666E74 		.ascii	"_fntypes\000"
 3015      79706573 
 3015      00
ARM GAS  C:\Users\SALMAC~1\AppData\Local\Temp\ccqMZLdK.s 			page 59


 3016              	.LASF139:
 3017 06f4 73656E73 		.ascii	"sensor_id\000"
 3017      6F725F69 
 3017      6400
 3018              	.LASF96:
 3019 06fe 5F616464 		.ascii	"_add\000"
 3019      00
 3020              	.LASF129:
 3021 0703 4241434B 		.ascii	"BACK_RIGHT\000"
 3021      5F524947 
 3021      485400
 3022              	.LASF22:
 3023 070e 5F5F554C 		.ascii	"__ULong\000"
 3023      6F6E6700 
 3024              	.LASF122:
 3025 0716 5F676C6F 		.ascii	"_global_impure_ptr\000"
 3025      62616C5F 
 3025      696D7075 
 3025      72655F70 
 3025      747200
 3026              	.LASF97:
 3027 0729 5F756E75 		.ascii	"_unused_rand\000"
 3027      7365645F 
 3027      72616E64 
 3027      00
 3028              	.LASF26:
 3029 0736 5F776473 		.ascii	"_wds\000"
 3029      00
 3030              	.LASF35:
 3031 073b 5F5F746D 		.ascii	"__tm_wday\000"
 3031      5F776461 
 3031      7900
 3032              	.LASF90:
 3033 0745 5F676C75 		.ascii	"_glue\000"
 3033      6500
 3034              	.LASF117:
 3035 074b 5F6E6D61 		.ascii	"_nmalloc\000"
 3035      6C6C6F63 
 3035      00
 3036              	.LASF107:
 3037 0754 5F6C3634 		.ascii	"_l64a_buf\000"
 3037      615F6275 
 3037      6600
 3038              	.LASF85:
 3039 075e 5F736967 		.ascii	"_sig_func\000"
 3039      5F66756E 
 3039      6300
 3040              	.LASF21:
 3041 0768 5F666C6F 		.ascii	"_flock_t\000"
 3041      636B5F74 
 3041      00
 3042              	.LASF59:
 3043 0771 5F6E6275 		.ascii	"_nbuf\000"
 3043      6600
 3044              	.LASF118:
 3045 0777 5F756E75 		.ascii	"_unused\000"
 3045      73656400 
ARM GAS  C:\Users\SALMAC~1\AppData\Local\Temp\ccqMZLdK.s 			page 60


 3046              	.LASF37:
 3047 077f 5F5F746D 		.ascii	"__tm_isdst\000"
 3047      5F697364 
 3047      737400
 3048              	.LASF100:
 3049 078a 5F6C6F63 		.ascii	"_localtime_buf\000"
 3049      616C7469 
 3049      6D655F62 
 3049      756600
 3050              	.LASF57:
 3051 0799 5F636C6F 		.ascii	"_close\000"
 3051      736500
 3052              	.LASF131:
 3053 07a0 4C454654 		.ascii	"LEFT_SENS\000"
 3053      5F53454E 
 3053      5300
 3054              	.LASF103:
 3055 07aa 5F723438 		.ascii	"_r48\000"
 3055      00
 3056              	.LASF105:
 3057 07af 5F6D6274 		.ascii	"_mbtowc_state\000"
 3057      6F77635F 
 3057      73746174 
 3057      6500
 3058              	.LASF79:
 3059 07bd 5F703573 		.ascii	"_p5s\000"
 3059      00
 3060              	.LASF148:
 3061 07c2 72656775 		.ascii	"regulator_pd\000"
 3061      6C61746F 
 3061      725F7064 
 3061      00
 3062              	.LASF140:
 3063 07cf 6C617374 		.ascii	"last_difference\000"
 3063      5F646966 
 3063      66657265 
 3063      6E636500 
 3064              	.LASF145:
 3065 07df 66726F6E 		.ascii	"front_left_45deg_value\000"
 3065      745F6C65 
 3065      66745F34 
 3065      35646567 
 3065      5F76616C 
 3066              	.LASF32:
 3067 07f6 5F5F746D 		.ascii	"__tm_mday\000"
 3067      5F6D6461 
 3067      7900
 3068              	.LASF130:
 3069 0800 4241434B 		.ascii	"BACK_LEFT\000"
 3069      5F4C4546 
 3069      5400
 3070              		.ident	"GCC: (GNU Tools for Arm Embedded Processors 7-2017-q4-major) 7.2.1 20170904 (release) [ARM
ARM GAS  C:\Users\SALMAC~1\AppData\Local\Temp\ccqMZLdK.s 			page 61


DEFINED SYMBOLS
                            *ABS*:00000000 regulator.c
C:\Users\SALMAC~1\AppData\Local\Temp\ccqMZLdK.s:18     .text.regulator_pd:00000000 $t
C:\Users\SALMAC~1\AppData\Local\Temp\ccqMZLdK.s:26     .text.regulator_pd:00000000 regulator_pd
C:\Users\SALMAC~1\AppData\Local\Temp\ccqMZLdK.s:164    .text.regulator_pd:000000cc $d
C:\Users\SALMAC~1\AppData\Local\Temp\ccqMZLdK.s:172    .text.regulator_difference:00000000 $t
C:\Users\SALMAC~1\AppData\Local\Temp\ccqMZLdK.s:180    .text.regulator_difference:00000000 regulator_difference
C:\Users\SALMAC~1\AppData\Local\Temp\ccqMZLdK.s:250    .text.regulator_difference:00000038 $d
C:\Users\SALMAC~1\AppData\Local\Temp\ccqMZLdK.s:255    .text.regulator_follow_wall:00000000 $t
C:\Users\SALMAC~1\AppData\Local\Temp\ccqMZLdK.s:263    .text.regulator_follow_wall:00000000 regulator_follow_wall
C:\Users\SALMAC~1\AppData\Local\Temp\ccqMZLdK.s:321    .text.regulator_follow_wall:00000034 $d
C:\Users\SALMAC~1\AppData\Local\Temp\ccqMZLdK.s:326    .bss.last_difference:00000000 $d
C:\Users\SALMAC~1\AppData\Local\Temp\ccqMZLdK.s:330    .bss.last_difference:00000000 last_difference

UNDEFINED SYMBOLS
get_right_speed
get_left_speed
set_speed
__stack_chk_fail
__stack_chk_guard
